ARM GAS  C:\Users\kroko\AppData\Local\Temp\ccWVPZuZ.s 			page 1


   1              		.cpu cortex-m3
   2              		.arch armv7-m
   3              		.fpu softvfp
   4              		.eabi_attribute 20, 1
   5              		.eabi_attribute 21, 1
   6              		.eabi_attribute 23, 3
   7              		.eabi_attribute 24, 1
   8              		.eabi_attribute 25, 1
   9              		.eabi_attribute 26, 1
  10              		.eabi_attribute 30, 1
  11              		.eabi_attribute 34, 1
  12              		.eabi_attribute 18, 4
  13              		.file	"ssd1306.c"
  14              		.text
  15              	.Ltext0:
  16              		.cfi_sections	.debug_frame
  17              		.file 1 "Core/Src/ssd1306.c"
  18              		.section	.text.SSD1306_ToggleInvert,"ax",%progbits
  19              		.align	1
  20              		.global	SSD1306_ToggleInvert
  21              		.syntax unified
  22              		.thumb
  23              		.thumb_func
  25              	SSD1306_ToggleInvert:
  26              	.LFB67:
   1:Core/Src/ssd1306.c **** /**
   2:Core/Src/ssd1306.c ****  * original author:  Tilen Majerle<tilen@majerle.eu>
   3:Core/Src/ssd1306.c ****  * modification for STM32f10x: Alexander Lutsai<s.lyra@ya.ru>
   4:Core/Src/ssd1306.c **** 
   5:Core/Src/ssd1306.c ****    ----------------------------------------------------------------------
   6:Core/Src/ssd1306.c ****    	Copyright (C) Alexander Lutsai, 2016
   7:Core/Src/ssd1306.c ****     Copyright (C) Tilen Majerle, 2015
   8:Core/Src/ssd1306.c **** 
   9:Core/Src/ssd1306.c ****     This program is free software: you can redistribute it and/or modify
  10:Core/Src/ssd1306.c ****     it under the terms of the GNU General Public License as published by
  11:Core/Src/ssd1306.c ****     the Free Software Foundation, either version 3 of the License, or
  12:Core/Src/ssd1306.c ****     any later version.
  13:Core/Src/ssd1306.c **** 
  14:Core/Src/ssd1306.c ****     This program is distributed in the hope that it will be useful,
  15:Core/Src/ssd1306.c ****     but WITHOUT ANY WARRANTY; without even the implied warranty of
  16:Core/Src/ssd1306.c ****     MERCHANTABILITY or FITNESS FOR A PARTICULAR PURPOSE.  See the
  17:Core/Src/ssd1306.c ****     GNU General Public License for more details.
  18:Core/Src/ssd1306.c **** 
  19:Core/Src/ssd1306.c ****     You should have received a copy of the GNU General Public License
  20:Core/Src/ssd1306.c ****     along with this program.  If not, see <http://www.gnu.org/licenses/>.
  21:Core/Src/ssd1306.c ****    ----------------------------------------------------------------------
  22:Core/Src/ssd1306.c ****  */
  23:Core/Src/ssd1306.c **** #include "ssd1306.h"
  24:Core/Src/ssd1306.c **** 
  25:Core/Src/ssd1306.c **** extern I2C_HandleTypeDef hi2c1;
  26:Core/Src/ssd1306.c **** #define SSD1306_I2C &hi2c1
  27:Core/Src/ssd1306.c **** 
  28:Core/Src/ssd1306.c **** 
  29:Core/Src/ssd1306.c **** /* Write command */
  30:Core/Src/ssd1306.c **** #define SSD1306_WRITECOMMAND(command)      ssd1306_I2C_Write(SSD1306_I2C_ADDR, 0x00, (command))
  31:Core/Src/ssd1306.c **** /* Write data */
  32:Core/Src/ssd1306.c **** #define SSD1306_WRITEDATA(data)            ssd1306_I2C_Write(SSD1306_I2C_ADDR, 0x40, (data))
ARM GAS  C:\Users\kroko\AppData\Local\Temp\ccWVPZuZ.s 			page 2


  33:Core/Src/ssd1306.c **** /* Absolute value */
  34:Core/Src/ssd1306.c **** #define ABS(x)   ((x) > 0 ? (x) : -(x))
  35:Core/Src/ssd1306.c **** 
  36:Core/Src/ssd1306.c **** /* SSD1306 data buffer */
  37:Core/Src/ssd1306.c **** static uint8_t SSD1306_Buffer[SSD1306_WIDTH * SSD1306_HEIGHT / 8];
  38:Core/Src/ssd1306.c **** 
  39:Core/Src/ssd1306.c **** /* Private SSD1306 structure */
  40:Core/Src/ssd1306.c **** typedef struct {
  41:Core/Src/ssd1306.c **** 	uint16_t CurrentX;
  42:Core/Src/ssd1306.c **** 	uint16_t CurrentY;
  43:Core/Src/ssd1306.c **** 	uint8_t Inverted;
  44:Core/Src/ssd1306.c **** 	uint8_t Initialized;
  45:Core/Src/ssd1306.c **** } SSD1306_t;
  46:Core/Src/ssd1306.c **** 
  47:Core/Src/ssd1306.c **** /* Private variable */
  48:Core/Src/ssd1306.c **** static SSD1306_t SSD1306;
  49:Core/Src/ssd1306.c **** 
  50:Core/Src/ssd1306.c **** 
  51:Core/Src/ssd1306.c **** uint8_t SSD1306_Init(void) {
  52:Core/Src/ssd1306.c **** 
  53:Core/Src/ssd1306.c **** 	/* Init I2C */
  54:Core/Src/ssd1306.c **** 	ssd1306_I2C_Init();
  55:Core/Src/ssd1306.c **** 	
  56:Core/Src/ssd1306.c **** 	/* Check if LCD connected to I2C */
  57:Core/Src/ssd1306.c **** 	if (HAL_I2C_IsDeviceReady(SSD1306_I2C, SSD1306_I2C_ADDR, 1, 20000) != HAL_OK) {
  58:Core/Src/ssd1306.c **** 		/* Return false */
  59:Core/Src/ssd1306.c **** 		return 0;
  60:Core/Src/ssd1306.c **** 	}
  61:Core/Src/ssd1306.c **** 	
  62:Core/Src/ssd1306.c **** 	/* A little delay */
  63:Core/Src/ssd1306.c **** 	uint32_t p = 2500;
  64:Core/Src/ssd1306.c **** 	while(p>0)
  65:Core/Src/ssd1306.c **** 		p--;
  66:Core/Src/ssd1306.c **** 	
  67:Core/Src/ssd1306.c **** 	/* Init LCD */
  68:Core/Src/ssd1306.c **** 	SSD1306_WRITECOMMAND(0xAE); //display off
  69:Core/Src/ssd1306.c **** 	SSD1306_WRITECOMMAND(0x20); //Set Memory Addressing Mode   
  70:Core/Src/ssd1306.c **** 	SSD1306_WRITECOMMAND(0x10); //00,Horizontal Addressing Mode;01,Vertical Addressing Mode;10,Page Ad
  71:Core/Src/ssd1306.c **** 	SSD1306_WRITECOMMAND(0xB0); //Set Page Start Address for Page Addressing Mode,0-7
  72:Core/Src/ssd1306.c **** 	SSD1306_WRITECOMMAND(0xC8); //Set COM Output Scan Direction
  73:Core/Src/ssd1306.c **** 	SSD1306_WRITECOMMAND(0x00); //---set low column address
  74:Core/Src/ssd1306.c **** 	SSD1306_WRITECOMMAND(0x10); //---set high column address
  75:Core/Src/ssd1306.c **** 	SSD1306_WRITECOMMAND(0x40); //--set start line address
  76:Core/Src/ssd1306.c **** 	SSD1306_WRITECOMMAND(0x81); //--set contrast control register
  77:Core/Src/ssd1306.c **** 	SSD1306_WRITECOMMAND(0xFF);
  78:Core/Src/ssd1306.c **** 	SSD1306_WRITECOMMAND(0xA1); //--set segment re-map 0 to 127
  79:Core/Src/ssd1306.c **** 	SSD1306_WRITECOMMAND(0xA6); //--set normal display
  80:Core/Src/ssd1306.c **** #if (SSD1306_HEIGHT == 128)
  81:Core/Src/ssd1306.c ****     // Found in the Luma Python lib for SH1106.
  82:Core/Src/ssd1306.c **** 	SSD1306_WRITECOMMAND(0xFF);
  83:Core/Src/ssd1306.c **** #else
  84:Core/Src/ssd1306.c **** 	SSD1306_WRITECOMMAND(0xA8); //--set multiplex ratio(1 to 64) - CHECK
  85:Core/Src/ssd1306.c **** #endif
  86:Core/Src/ssd1306.c **** 
  87:Core/Src/ssd1306.c **** #if (SSD1306_HEIGHT == 32)
  88:Core/Src/ssd1306.c **** 	SSD1306_WRITECOMMAND(0x1F); //
  89:Core/Src/ssd1306.c **** #elif (SSD1306_HEIGHT == 64)
ARM GAS  C:\Users\kroko\AppData\Local\Temp\ccWVPZuZ.s 			page 3


  90:Core/Src/ssd1306.c **** 	SSD1306_WRITECOMMAND(0x3F); //
  91:Core/Src/ssd1306.c **** #elif (SSD1306_HEIGHT == 128)
  92:Core/Src/ssd1306.c **** 	SSD1306_WRITECOMMAND(0x3F); // Seems to work for 128px high displays too.
  93:Core/Src/ssd1306.c **** #endif
  94:Core/Src/ssd1306.c **** 	SSD1306_WRITECOMMAND(0xA4); //0xa4,Output follows RAM content;0xa5,Output ignores RAM content
  95:Core/Src/ssd1306.c **** 	SSD1306_WRITECOMMAND(0xD3); //-set display offset
  96:Core/Src/ssd1306.c **** 	SSD1306_WRITECOMMAND(0x00); //-not offset
  97:Core/Src/ssd1306.c **** 	SSD1306_WRITECOMMAND(0xD5); //--set display clock divide ratio/oscillator frequency
  98:Core/Src/ssd1306.c **** 	SSD1306_WRITECOMMAND(0xF0); //--set divide ratio
  99:Core/Src/ssd1306.c **** 	SSD1306_WRITECOMMAND(0xD9); //--set pre-charge period
 100:Core/Src/ssd1306.c **** 	SSD1306_WRITECOMMAND(0x22); //
 101:Core/Src/ssd1306.c **** 
 102:Core/Src/ssd1306.c **** 	SSD1306_WRITECOMMAND(0xDA); //--set com pins hardware configuration
 103:Core/Src/ssd1306.c **** #if (SSD1306_HEIGHT == 32)
 104:Core/Src/ssd1306.c **** 	SSD1306_WRITECOMMAND(0x02);
 105:Core/Src/ssd1306.c **** #elif (SSD1306_HEIGHT == 64)
 106:Core/Src/ssd1306.c **** 	SSD1306_WRITECOMMAND(0x12);
 107:Core/Src/ssd1306.c **** #elif (SSD1306_HEIGHT == 128)
 108:Core/Src/ssd1306.c **** 	SSD1306_WRITECOMMAND(0x12);
 109:Core/Src/ssd1306.c **** #endif
 110:Core/Src/ssd1306.c **** 
 111:Core/Src/ssd1306.c **** 	SSD1306_WRITECOMMAND(0xDB); //--set vcomh
 112:Core/Src/ssd1306.c **** 	SSD1306_WRITECOMMAND(0x20); //0x20,0.77xVcc
 113:Core/Src/ssd1306.c **** 	SSD1306_WRITECOMMAND(0x8D); //--set DC-DC enable
 114:Core/Src/ssd1306.c **** 	SSD1306_WRITECOMMAND(0x14); //
 115:Core/Src/ssd1306.c **** 	SSD1306_WRITECOMMAND(0xAF); //--turn on SSD1306 panel
 116:Core/Src/ssd1306.c **** 	
 117:Core/Src/ssd1306.c **** 
 118:Core/Src/ssd1306.c **** 	SSD1306_WRITECOMMAND(SSD1306_DEACTIVATE_SCROLL);
 119:Core/Src/ssd1306.c **** 
 120:Core/Src/ssd1306.c **** 	/* Clear screen */
 121:Core/Src/ssd1306.c **** 	SSD1306_Fill(SSD1306_COLOR_BLACK);
 122:Core/Src/ssd1306.c **** 	
 123:Core/Src/ssd1306.c **** 	/* Update screen */
 124:Core/Src/ssd1306.c **** 	SSD1306_UpdateScreen();
 125:Core/Src/ssd1306.c **** 	
 126:Core/Src/ssd1306.c **** 	/* Set default values */
 127:Core/Src/ssd1306.c **** 	SSD1306.CurrentX = 0;
 128:Core/Src/ssd1306.c **** 	SSD1306.CurrentY = 0;
 129:Core/Src/ssd1306.c **** 	
 130:Core/Src/ssd1306.c **** 	/* Initialized OK */
 131:Core/Src/ssd1306.c **** 	SSD1306.Initialized = 1;
 132:Core/Src/ssd1306.c **** 	
 133:Core/Src/ssd1306.c **** 	/* Return OK */
 134:Core/Src/ssd1306.c **** 	return 1;
 135:Core/Src/ssd1306.c **** }
 136:Core/Src/ssd1306.c **** 
 137:Core/Src/ssd1306.c **** void SSD1306_UpdateScreen(void) {
 138:Core/Src/ssd1306.c **** 	uint8_t m;
 139:Core/Src/ssd1306.c **** 	
 140:Core/Src/ssd1306.c **** 	for (m = 0; m < 8; m++) {
 141:Core/Src/ssd1306.c **** 		SSD1306_WRITECOMMAND(0xB0 + m);
 142:Core/Src/ssd1306.c **** 		SSD1306_WRITECOMMAND(0x00);
 143:Core/Src/ssd1306.c **** 		SSD1306_WRITECOMMAND(0x10);
 144:Core/Src/ssd1306.c **** 		
 145:Core/Src/ssd1306.c **** 		/* Write multi data */
 146:Core/Src/ssd1306.c **** 		ssd1306_I2C_WriteMulti(SSD1306_I2C_ADDR, 0x40, &SSD1306_Buffer[SSD1306_WIDTH * m], SSD1306_WIDTH)
ARM GAS  C:\Users\kroko\AppData\Local\Temp\ccWVPZuZ.s 			page 4


 147:Core/Src/ssd1306.c **** 	}
 148:Core/Src/ssd1306.c **** }
 149:Core/Src/ssd1306.c **** 
 150:Core/Src/ssd1306.c **** void SSD1306_ToggleInvert(void) {
  27              		.loc 1 150 33 view -0
  28              		.cfi_startproc
  29              		@ args = 0, pretend = 0, frame = 0
  30              		@ frame_needed = 0, uses_anonymous_args = 0
  31              		@ link register save eliminated.
 151:Core/Src/ssd1306.c **** 	uint16_t i;
  32              		.loc 1 151 2 view .LVU1
 152:Core/Src/ssd1306.c **** 	
 153:Core/Src/ssd1306.c **** 	/* Toggle invert */
 154:Core/Src/ssd1306.c **** 	SSD1306.Inverted = !SSD1306.Inverted;
  33              		.loc 1 154 2 view .LVU2
  34              		.loc 1 154 29 is_stmt 0 view .LVU3
  35 0000 084A     		ldr	r2, .L4
  36 0002 1379     		ldrb	r3, [r2, #4]	@ zero_extendqisi2
  37              		.loc 1 154 21 view .LVU4
  38 0004 B3FA83F3 		clz	r3, r3
  39 0008 5B09     		lsrs	r3, r3, #5
  40              		.loc 1 154 19 view .LVU5
  41 000a 1371     		strb	r3, [r2, #4]
 155:Core/Src/ssd1306.c **** 	
 156:Core/Src/ssd1306.c **** 	/* Do memory toggle */
 157:Core/Src/ssd1306.c **** 	for (i = 0; i < sizeof(SSD1306_Buffer); i++) {
  42              		.loc 1 157 2 is_stmt 1 view .LVU6
  43              	.LVL0:
  44              		.loc 1 157 9 is_stmt 0 view .LVU7
  45 000c 0023     		movs	r3, #0
  46              		.loc 1 157 2 view .LVU8
  47 000e 05E0     		b	.L2
  48              	.LVL1:
  49              	.L3:
 158:Core/Src/ssd1306.c **** 		SSD1306_Buffer[i] = ~SSD1306_Buffer[i];
  50              		.loc 1 158 3 is_stmt 1 view .LVU9
  51              		.loc 1 158 38 is_stmt 0 view .LVU10
  52 0010 0549     		ldr	r1, .L4+4
  53 0012 CA5C     		ldrb	r2, [r1, r3]	@ zero_extendqisi2
  54              		.loc 1 158 21 view .LVU11
  55 0014 D243     		mvns	r2, r2
  56 0016 CA54     		strb	r2, [r1, r3]
 157:Core/Src/ssd1306.c **** 		SSD1306_Buffer[i] = ~SSD1306_Buffer[i];
  57              		.loc 1 157 43 is_stmt 1 discriminator 3 view .LVU12
  58 0018 0133     		adds	r3, r3, #1
  59              	.LVL2:
 157:Core/Src/ssd1306.c **** 		SSD1306_Buffer[i] = ~SSD1306_Buffer[i];
  60              		.loc 1 157 43 is_stmt 0 discriminator 3 view .LVU13
  61 001a 9BB2     		uxth	r3, r3
  62              	.LVL3:
  63              	.L2:
 157:Core/Src/ssd1306.c **** 		SSD1306_Buffer[i] = ~SSD1306_Buffer[i];
  64              		.loc 1 157 16 is_stmt 1 discriminator 1 view .LVU14
  65 001c B3F5806F 		cmp	r3, #1024
  66 0020 F6D3     		bcc	.L3
 159:Core/Src/ssd1306.c **** 	}
 160:Core/Src/ssd1306.c **** }
ARM GAS  C:\Users\kroko\AppData\Local\Temp\ccWVPZuZ.s 			page 5


  67              		.loc 1 160 1 is_stmt 0 view .LVU15
  68 0022 7047     		bx	lr
  69              	.L5:
  70              		.align	2
  71              	.L4:
  72 0024 00000000 		.word	SSD1306
  73 0028 00000000 		.word	SSD1306_Buffer
  74              		.cfi_endproc
  75              	.LFE67:
  77              		.section	.text.SSD1306_Fill,"ax",%progbits
  78              		.align	1
  79              		.global	SSD1306_Fill
  80              		.syntax unified
  81              		.thumb
  82              		.thumb_func
  84              	SSD1306_Fill:
  85              	.LVL4:
  86              	.LFB68:
 161:Core/Src/ssd1306.c **** 
 162:Core/Src/ssd1306.c **** void SSD1306_Fill(SSD1306_COLOR_t color) {
  87              		.loc 1 162 42 is_stmt 1 view -0
  88              		.cfi_startproc
  89              		@ args = 0, pretend = 0, frame = 0
  90              		@ frame_needed = 0, uses_anonymous_args = 0
  91              		.loc 1 162 42 is_stmt 0 view .LVU17
  92 0000 08B5     		push	{r3, lr}
  93              		.cfi_def_cfa_offset 8
  94              		.cfi_offset 3, -8
  95              		.cfi_offset 14, -4
 163:Core/Src/ssd1306.c **** 	/* Set memory */
 164:Core/Src/ssd1306.c **** 	memset(SSD1306_Buffer, (color == SSD1306_COLOR_BLACK) ? 0x00 : 0xFF, sizeof(SSD1306_Buffer));
  96              		.loc 1 164 2 is_stmt 1 view .LVU18
  97 0002 30B9     		cbnz	r0, .L8
  98              		.loc 1 164 2 is_stmt 0 discriminator 1 view .LVU19
  99 0004 0021     		movs	r1, #0
 100              	.L7:
 101              		.loc 1 164 2 discriminator 4 view .LVU20
 102 0006 4FF48062 		mov	r2, #1024
 103 000a 0348     		ldr	r0, .L10
 104              	.LVL5:
 105              		.loc 1 164 2 discriminator 4 view .LVU21
 106 000c FFF7FEFF 		bl	memset
 107              	.LVL6:
 165:Core/Src/ssd1306.c **** }
 108              		.loc 1 165 1 view .LVU22
 109 0010 08BD     		pop	{r3, pc}
 110              	.LVL7:
 111              	.L8:
 164:Core/Src/ssd1306.c **** }
 112              		.loc 1 164 2 discriminator 2 view .LVU23
 113 0012 FF21     		movs	r1, #255
 114 0014 F7E7     		b	.L7
 115              	.L11:
 116 0016 00BF     		.align	2
 117              	.L10:
 118 0018 00000000 		.word	SSD1306_Buffer
 119              		.cfi_endproc
ARM GAS  C:\Users\kroko\AppData\Local\Temp\ccWVPZuZ.s 			page 6


 120              	.LFE68:
 122              		.section	.text.SSD1306_DrawPixel,"ax",%progbits
 123              		.align	1
 124              		.global	SSD1306_DrawPixel
 125              		.syntax unified
 126              		.thumb
 127              		.thumb_func
 129              	SSD1306_DrawPixel:
 130              	.LVL8:
 131              	.LFB69:
 166:Core/Src/ssd1306.c **** 
 167:Core/Src/ssd1306.c **** void SSD1306_DrawPixel(uint16_t x, uint16_t y, SSD1306_COLOR_t color) {
 132              		.loc 1 167 71 is_stmt 1 view -0
 133              		.cfi_startproc
 134              		@ args = 0, pretend = 0, frame = 0
 135              		@ frame_needed = 0, uses_anonymous_args = 0
 136              		@ link register save eliminated.
 168:Core/Src/ssd1306.c **** 	if (
 137              		.loc 1 168 2 view .LVU25
 138              		.loc 1 168 5 is_stmt 0 view .LVU26
 139 0000 7F28     		cmp	r0, #127
 140 0002 24D8     		bhi	.L17
 169:Core/Src/ssd1306.c **** 		x >= SSD1306_WIDTH ||
 141              		.loc 1 169 22 view .LVU27
 142 0004 3F29     		cmp	r1, #63
 143 0006 22D8     		bhi	.L17
 167:Core/Src/ssd1306.c **** 	if (
 144              		.loc 1 167 71 view .LVU28
 145 0008 10B4     		push	{r4}
 146              		.cfi_def_cfa_offset 4
 147              		.cfi_offset 4, -4
 170:Core/Src/ssd1306.c **** 		y >= SSD1306_HEIGHT
 171:Core/Src/ssd1306.c **** 	) {
 172:Core/Src/ssd1306.c **** 		/* Error */
 173:Core/Src/ssd1306.c **** 		return;
 174:Core/Src/ssd1306.c **** 	}
 175:Core/Src/ssd1306.c **** 	
 176:Core/Src/ssd1306.c **** 	/* Check if pixels are inverted */
 177:Core/Src/ssd1306.c **** 	if (SSD1306.Inverted) {
 148              		.loc 1 177 2 is_stmt 1 view .LVU29
 149              		.loc 1 177 13 is_stmt 0 view .LVU30
 150 000a 114B     		ldr	r3, .L21
 151 000c 1B79     		ldrb	r3, [r3, #4]	@ zero_extendqisi2
 152              		.loc 1 177 5 view .LVU31
 153 000e 13B1     		cbz	r3, .L14
 178:Core/Src/ssd1306.c **** 		color = (SSD1306_COLOR_t)!color;
 154              		.loc 1 178 3 is_stmt 1 view .LVU32
 155              		.loc 1 178 11 is_stmt 0 view .LVU33
 156 0010 B2FA82F2 		clz	r2, r2
 157              	.LVL9:
 158              		.loc 1 178 11 view .LVU34
 159 0014 5209     		lsrs	r2, r2, #5
 160              	.LVL10:
 161              	.L14:
 179:Core/Src/ssd1306.c **** 	}
 180:Core/Src/ssd1306.c **** 	
 181:Core/Src/ssd1306.c **** 	/* Set color */
ARM GAS  C:\Users\kroko\AppData\Local\Temp\ccWVPZuZ.s 			page 7


 182:Core/Src/ssd1306.c **** 	if (color == SSD1306_COLOR_WHITE) {
 162              		.loc 1 182 2 is_stmt 1 view .LVU35
 163              		.loc 1 182 5 is_stmt 0 view .LVU36
 164 0016 012A     		cmp	r2, #1
 165 0018 0ED0     		beq	.L20
 183:Core/Src/ssd1306.c **** 		SSD1306_Buffer[x + (y / 8) * SSD1306_WIDTH] |= 1 << (y % 8);
 184:Core/Src/ssd1306.c **** 	} else {
 185:Core/Src/ssd1306.c **** 		SSD1306_Buffer[x + (y / 8) * SSD1306_WIDTH] &= ~(1 << (y % 8));
 166              		.loc 1 185 3 is_stmt 1 view .LVU37
 167              		.loc 1 185 17 is_stmt 0 view .LVU38
 168 001a CB08     		lsrs	r3, r1, #3
 169 001c 00EBC310 		add	r0, r0, r3, lsl #7
 170              	.LVL11:
 171              		.loc 1 185 17 view .LVU39
 172 0020 0C4C     		ldr	r4, .L21+4
 173 0022 225C     		ldrb	r2, [r4, r0]	@ zero_extendqisi2
 174              	.LVL12:
 175              		.loc 1 185 60 view .LVU40
 176 0024 01F00701 		and	r1, r1, #7
 177              	.LVL13:
 178              		.loc 1 185 54 view .LVU41
 179 0028 0123     		movs	r3, #1
 180 002a 8B40     		lsls	r3, r3, r1
 181              		.loc 1 185 47 view .LVU42
 182 002c DB43     		mvns	r3, r3
 183 002e 5BB2     		sxtb	r3, r3
 184 0030 1340     		ands	r3, r3, r2
 185 0032 2354     		strb	r3, [r4, r0]
 186              	.L12:
 186:Core/Src/ssd1306.c **** 	}
 187:Core/Src/ssd1306.c **** }
 187              		.loc 1 187 1 view .LVU43
 188 0034 10BC     		pop	{r4}
 189              		.cfi_remember_state
 190              		.cfi_restore 4
 191              		.cfi_def_cfa_offset 0
 192 0036 7047     		bx	lr
 193              	.LVL14:
 194              	.L20:
 195              		.cfi_restore_state
 183:Core/Src/ssd1306.c **** 		SSD1306_Buffer[x + (y / 8) * SSD1306_WIDTH] |= 1 << (y % 8);
 196              		.loc 1 183 3 is_stmt 1 view .LVU44
 183:Core/Src/ssd1306.c **** 		SSD1306_Buffer[x + (y / 8) * SSD1306_WIDTH] |= 1 << (y % 8);
 197              		.loc 1 183 17 is_stmt 0 view .LVU45
 198 0038 CB08     		lsrs	r3, r1, #3
 199 003a 00EBC310 		add	r0, r0, r3, lsl #7
 200              	.LVL15:
 183:Core/Src/ssd1306.c **** 		SSD1306_Buffer[x + (y / 8) * SSD1306_WIDTH] |= 1 << (y % 8);
 201              		.loc 1 183 17 view .LVU46
 202 003e 054C     		ldr	r4, .L21+4
 203 0040 235C     		ldrb	r3, [r4, r0]	@ zero_extendqisi2
 183:Core/Src/ssd1306.c **** 		SSD1306_Buffer[x + (y / 8) * SSD1306_WIDTH] |= 1 << (y % 8);
 204              		.loc 1 183 58 view .LVU47
 205 0042 01F00701 		and	r1, r1, #7
 206              	.LVL16:
 183:Core/Src/ssd1306.c **** 		SSD1306_Buffer[x + (y / 8) * SSD1306_WIDTH] |= 1 << (y % 8);
 207              		.loc 1 183 52 view .LVU48
ARM GAS  C:\Users\kroko\AppData\Local\Temp\ccWVPZuZ.s 			page 8


 208 0046 8A40     		lsls	r2, r2, r1
 209              	.LVL17:
 183:Core/Src/ssd1306.c **** 		SSD1306_Buffer[x + (y / 8) * SSD1306_WIDTH] |= 1 << (y % 8);
 210              		.loc 1 183 47 view .LVU49
 211 0048 1343     		orrs	r3, r3, r2
 212 004a 2354     		strb	r3, [r4, r0]
 213 004c F2E7     		b	.L12
 214              	.LVL18:
 215              	.L17:
 216              		.cfi_def_cfa_offset 0
 217              		.cfi_restore 4
 183:Core/Src/ssd1306.c **** 		SSD1306_Buffer[x + (y / 8) * SSD1306_WIDTH] |= 1 << (y % 8);
 218              		.loc 1 183 47 view .LVU50
 219 004e 7047     		bx	lr
 220              	.L22:
 221              		.align	2
 222              	.L21:
 223 0050 00000000 		.word	SSD1306
 224 0054 00000000 		.word	SSD1306_Buffer
 225              		.cfi_endproc
 226              	.LFE69:
 228              		.section	.text.SSD1306_GotoXY,"ax",%progbits
 229              		.align	1
 230              		.global	SSD1306_GotoXY
 231              		.syntax unified
 232              		.thumb
 233              		.thumb_func
 235              	SSD1306_GotoXY:
 236              	.LVL19:
 237              	.LFB70:
 188:Core/Src/ssd1306.c **** 
 189:Core/Src/ssd1306.c **** void SSD1306_GotoXY(uint16_t x, uint16_t y) {
 238              		.loc 1 189 45 is_stmt 1 view -0
 239              		.cfi_startproc
 240              		@ args = 0, pretend = 0, frame = 0
 241              		@ frame_needed = 0, uses_anonymous_args = 0
 242              		@ link register save eliminated.
 190:Core/Src/ssd1306.c **** 	/* Set write pointers */
 191:Core/Src/ssd1306.c **** 	SSD1306.CurrentX = x;
 243              		.loc 1 191 2 view .LVU52
 244              		.loc 1 191 19 is_stmt 0 view .LVU53
 245 0000 014B     		ldr	r3, .L24
 246 0002 1880     		strh	r0, [r3]	@ movhi
 192:Core/Src/ssd1306.c **** 	SSD1306.CurrentY = y;
 247              		.loc 1 192 2 is_stmt 1 view .LVU54
 248              		.loc 1 192 19 is_stmt 0 view .LVU55
 249 0004 5980     		strh	r1, [r3, #2]	@ movhi
 193:Core/Src/ssd1306.c **** }
 250              		.loc 1 193 1 view .LVU56
 251 0006 7047     		bx	lr
 252              	.L25:
 253              		.align	2
 254              	.L24:
 255 0008 00000000 		.word	SSD1306
 256              		.cfi_endproc
 257              	.LFE70:
 259              		.section	.text.SSD1306_Putc,"ax",%progbits
ARM GAS  C:\Users\kroko\AppData\Local\Temp\ccWVPZuZ.s 			page 9


 260              		.align	1
 261              		.global	SSD1306_Putc
 262              		.syntax unified
 263              		.thumb
 264              		.thumb_func
 266              	SSD1306_Putc:
 267              	.LVL20:
 268              	.LFB71:
 194:Core/Src/ssd1306.c **** 
 195:Core/Src/ssd1306.c **** char SSD1306_Putc(char ch, FontDef_t* Font, SSD1306_COLOR_t color) {
 269              		.loc 1 195 68 is_stmt 1 view -0
 270              		.cfi_startproc
 271              		@ args = 0, pretend = 0, frame = 0
 272              		@ frame_needed = 0, uses_anonymous_args = 0
 273              		.loc 1 195 68 is_stmt 0 view .LVU58
 274 0000 2DE9F843 		push	{r3, r4, r5, r6, r7, r8, r9, lr}
 275              		.cfi_def_cfa_offset 32
 276              		.cfi_offset 3, -32
 277              		.cfi_offset 4, -28
 278              		.cfi_offset 5, -24
 279              		.cfi_offset 6, -20
 280              		.cfi_offset 7, -16
 281              		.cfi_offset 8, -12
 282              		.cfi_offset 9, -8
 283              		.cfi_offset 14, -4
 284 0004 9046     		mov	r8, r2
 196:Core/Src/ssd1306.c **** 	uint32_t i, b, j;
 285              		.loc 1 196 2 is_stmt 1 view .LVU59
 197:Core/Src/ssd1306.c **** 	
 198:Core/Src/ssd1306.c **** 	/* Check available space in LCD */
 199:Core/Src/ssd1306.c **** 	if (
 286              		.loc 1 199 2 view .LVU60
 200:Core/Src/ssd1306.c **** 		SSD1306_WIDTH <= (SSD1306.CurrentX + Font->FontWidth) ||
 287              		.loc 1 200 28 is_stmt 0 view .LVU61
 288 0006 244B     		ldr	r3, .L39
 289 0008 1B88     		ldrh	r3, [r3]
 290              		.loc 1 200 44 view .LVU62
 291 000a 0A78     		ldrb	r2, [r1]	@ zero_extendqisi2
 292              	.LVL21:
 293              		.loc 1 200 38 view .LVU63
 294 000c 1344     		add	r3, r3, r2
 199:Core/Src/ssd1306.c **** 		SSD1306_WIDTH <= (SSD1306.CurrentX + Font->FontWidth) ||
 295              		.loc 1 199 5 view .LVU64
 296 000e 7F2B     		cmp	r3, #127
 297 0010 3EDC     		bgt	.L34
 298 0012 8146     		mov	r9, r0
 299 0014 0D46     		mov	r5, r1
 201:Core/Src/ssd1306.c **** 		SSD1306_HEIGHT <= (SSD1306.CurrentY + Font->FontHeight)
 300              		.loc 1 201 29 view .LVU65
 301 0016 204B     		ldr	r3, .L39
 302 0018 5B88     		ldrh	r3, [r3, #2]
 303              		.loc 1 201 45 view .LVU66
 304 001a 4A78     		ldrb	r2, [r1, #1]	@ zero_extendqisi2
 305              		.loc 1 201 39 view .LVU67
 306 001c 1344     		add	r3, r3, r2
 200:Core/Src/ssd1306.c **** 		SSD1306_WIDTH <= (SSD1306.CurrentX + Font->FontWidth) ||
 307              		.loc 1 200 57 view .LVU68
ARM GAS  C:\Users\kroko\AppData\Local\Temp\ccWVPZuZ.s 			page 10


 308 001e 3F2B     		cmp	r3, #63
 309 0020 38DC     		bgt	.L35
 202:Core/Src/ssd1306.c **** 	) {
 203:Core/Src/ssd1306.c **** 		/* Error */
 204:Core/Src/ssd1306.c **** 		return 0;
 205:Core/Src/ssd1306.c **** 	}
 206:Core/Src/ssd1306.c **** 	
 207:Core/Src/ssd1306.c **** 	/* Go through font */
 208:Core/Src/ssd1306.c **** 	for (i = 0; i < Font->FontHeight; i++) {
 310              		.loc 1 208 9 view .LVU69
 311 0022 0026     		movs	r6, #0
 312 0024 20E0     		b	.L28
 313              	.LVL22:
 314              	.L30:
 209:Core/Src/ssd1306.c **** 		b = Font->data[(ch - 32) * Font->FontHeight + i];
 210:Core/Src/ssd1306.c **** 		for (j = 0; j < Font->FontWidth; j++) {
 211:Core/Src/ssd1306.c **** 			if ((b << j) & 0x8000) {
 212:Core/Src/ssd1306.c **** 				SSD1306_DrawPixel(SSD1306.CurrentX + j, (SSD1306.CurrentY + i), (SSD1306_COLOR_t) color);
 213:Core/Src/ssd1306.c **** 			} else {
 214:Core/Src/ssd1306.c **** 				SSD1306_DrawPixel(SSD1306.CurrentX + j, (SSD1306.CurrentY + i), (SSD1306_COLOR_t)!color);
 315              		.loc 1 214 5 is_stmt 1 view .LVU70
 316              		.loc 1 214 30 is_stmt 0 view .LVU71
 317 0026 1C4B     		ldr	r3, .L39
 318 0028 1888     		ldrh	r0, [r3]
 319              		.loc 1 214 53 view .LVU72
 320 002a 5988     		ldrh	r1, [r3, #2]
 321              		.loc 1 214 5 view .LVU73
 322 002c 3144     		add	r1, r1, r6
 323 002e 2044     		add	r0, r0, r4
 324 0030 B8FA88F2 		clz	r2, r8
 325 0034 5209     		lsrs	r2, r2, #5
 326 0036 89B2     		uxth	r1, r1
 327 0038 80B2     		uxth	r0, r0
 328 003a FFF7FEFF 		bl	SSD1306_DrawPixel
 329              	.LVL23:
 330              	.L31:
 210:Core/Src/ssd1306.c **** 			if ((b << j) & 0x8000) {
 331              		.loc 1 210 37 is_stmt 1 discriminator 2 view .LVU74
 332 003e 0134     		adds	r4, r4, #1
 333              	.LVL24:
 334              	.L29:
 210:Core/Src/ssd1306.c **** 			if ((b << j) & 0x8000) {
 335              		.loc 1 210 17 discriminator 1 view .LVU75
 210:Core/Src/ssd1306.c **** 			if ((b << j) & 0x8000) {
 336              		.loc 1 210 23 is_stmt 0 discriminator 1 view .LVU76
 337 0040 2B78     		ldrb	r3, [r5]	@ zero_extendqisi2
 210:Core/Src/ssd1306.c **** 			if ((b << j) & 0x8000) {
 338              		.loc 1 210 17 discriminator 1 view .LVU77
 339 0042 A342     		cmp	r3, r4
 340 0044 0FD9     		bls	.L37
 211:Core/Src/ssd1306.c **** 				SSD1306_DrawPixel(SSD1306.CurrentX + j, (SSD1306.CurrentY + i), (SSD1306_COLOR_t) color);
 341              		.loc 1 211 4 is_stmt 1 view .LVU78
 211:Core/Src/ssd1306.c **** 				SSD1306_DrawPixel(SSD1306.CurrentX + j, (SSD1306.CurrentY + i), (SSD1306_COLOR_t) color);
 342              		.loc 1 211 11 is_stmt 0 view .LVU79
 343 0046 07FA04F3 		lsl	r3, r7, r4
 211:Core/Src/ssd1306.c **** 				SSD1306_DrawPixel(SSD1306.CurrentX + j, (SSD1306.CurrentY + i), (SSD1306_COLOR_t) color);
 344              		.loc 1 211 7 view .LVU80
ARM GAS  C:\Users\kroko\AppData\Local\Temp\ccWVPZuZ.s 			page 11


 345 004a 13F4004F 		tst	r3, #32768
 346 004e EAD0     		beq	.L30
 212:Core/Src/ssd1306.c **** 			} else {
 347              		.loc 1 212 5 is_stmt 1 view .LVU81
 212:Core/Src/ssd1306.c **** 			} else {
 348              		.loc 1 212 30 is_stmt 0 view .LVU82
 349 0050 114B     		ldr	r3, .L39
 350 0052 1888     		ldrh	r0, [r3]
 212:Core/Src/ssd1306.c **** 			} else {
 351              		.loc 1 212 53 view .LVU83
 352 0054 5988     		ldrh	r1, [r3, #2]
 212:Core/Src/ssd1306.c **** 			} else {
 353              		.loc 1 212 5 view .LVU84
 354 0056 3144     		add	r1, r1, r6
 355 0058 2044     		add	r0, r0, r4
 356 005a 4246     		mov	r2, r8
 357 005c 89B2     		uxth	r1, r1
 358 005e 80B2     		uxth	r0, r0
 359 0060 FFF7FEFF 		bl	SSD1306_DrawPixel
 360              	.LVL25:
 361 0064 EBE7     		b	.L31
 362              	.L37:
 208:Core/Src/ssd1306.c **** 		b = Font->data[(ch - 32) * Font->FontHeight + i];
 363              		.loc 1 208 37 is_stmt 1 discriminator 2 view .LVU85
 364 0066 0136     		adds	r6, r6, #1
 365              	.LVL26:
 366              	.L28:
 208:Core/Src/ssd1306.c **** 		b = Font->data[(ch - 32) * Font->FontHeight + i];
 367              		.loc 1 208 16 discriminator 1 view .LVU86
 208:Core/Src/ssd1306.c **** 		b = Font->data[(ch - 32) * Font->FontHeight + i];
 368              		.loc 1 208 22 is_stmt 0 discriminator 1 view .LVU87
 369 0068 6A78     		ldrb	r2, [r5, #1]	@ zero_extendqisi2
 208:Core/Src/ssd1306.c **** 		b = Font->data[(ch - 32) * Font->FontHeight + i];
 370              		.loc 1 208 16 discriminator 1 view .LVU88
 371 006a B242     		cmp	r2, r6
 372 006c 08D9     		bls	.L38
 209:Core/Src/ssd1306.c **** 		for (j = 0; j < Font->FontWidth; j++) {
 373              		.loc 1 209 3 is_stmt 1 view .LVU89
 209:Core/Src/ssd1306.c **** 		for (j = 0; j < Font->FontWidth; j++) {
 374              		.loc 1 209 11 is_stmt 0 view .LVU90
 375 006e 6968     		ldr	r1, [r5, #4]
 209:Core/Src/ssd1306.c **** 		for (j = 0; j < Font->FontWidth; j++) {
 376              		.loc 1 209 22 view .LVU91
 377 0070 A9F12003 		sub	r3, r9, #32
 209:Core/Src/ssd1306.c **** 		for (j = 0; j < Font->FontWidth; j++) {
 378              		.loc 1 209 47 view .LVU92
 379 0074 02FB0363 		mla	r3, r2, r3, r6
 209:Core/Src/ssd1306.c **** 		for (j = 0; j < Font->FontWidth; j++) {
 380              		.loc 1 209 17 view .LVU93
 381 0078 31F81370 		ldrh	r7, [r1, r3, lsl #1]
 382              	.LVL27:
 210:Core/Src/ssd1306.c **** 			if ((b << j) & 0x8000) {
 383              		.loc 1 210 3 is_stmt 1 view .LVU94
 210:Core/Src/ssd1306.c **** 			if ((b << j) & 0x8000) {
 384              		.loc 1 210 10 is_stmt 0 view .LVU95
 385 007c 0024     		movs	r4, #0
 210:Core/Src/ssd1306.c **** 			if ((b << j) & 0x8000) {
ARM GAS  C:\Users\kroko\AppData\Local\Temp\ccWVPZuZ.s 			page 12


 386              		.loc 1 210 3 view .LVU96
 387 007e DFE7     		b	.L29
 388              	.LVL28:
 389              	.L38:
 215:Core/Src/ssd1306.c **** 			}
 216:Core/Src/ssd1306.c **** 		}
 217:Core/Src/ssd1306.c **** 	}
 218:Core/Src/ssd1306.c **** 	
 219:Core/Src/ssd1306.c **** 	/* Increase pointer */
 220:Core/Src/ssd1306.c **** 	SSD1306.CurrentX += Font->FontWidth;
 390              		.loc 1 220 2 is_stmt 1 view .LVU97
 391              		.loc 1 220 9 is_stmt 0 view .LVU98
 392 0080 054A     		ldr	r2, .L39
 393 0082 1388     		ldrh	r3, [r2]
 394              		.loc 1 220 26 view .LVU99
 395 0084 2978     		ldrb	r1, [r5]	@ zero_extendqisi2
 396              		.loc 1 220 19 view .LVU100
 397 0086 0B44     		add	r3, r3, r1
 398 0088 1380     		strh	r3, [r2]	@ movhi
 221:Core/Src/ssd1306.c **** 	
 222:Core/Src/ssd1306.c **** 	/* Return character written */
 223:Core/Src/ssd1306.c **** 	return ch;
 399              		.loc 1 223 2 is_stmt 1 view .LVU101
 400              		.loc 1 223 9 is_stmt 0 view .LVU102
 401 008a 4846     		mov	r0, r9
 402              	.LVL29:
 403              	.L27:
 224:Core/Src/ssd1306.c **** }
 404              		.loc 1 224 1 view .LVU103
 405 008c BDE8F883 		pop	{r3, r4, r5, r6, r7, r8, r9, pc}
 406              	.LVL30:
 407              	.L34:
 204:Core/Src/ssd1306.c **** 	}
 408              		.loc 1 204 10 view .LVU104
 409 0090 0020     		movs	r0, #0
 410              	.LVL31:
 204:Core/Src/ssd1306.c **** 	}
 411              		.loc 1 204 10 view .LVU105
 412 0092 FBE7     		b	.L27
 413              	.LVL32:
 414              	.L35:
 204:Core/Src/ssd1306.c **** 	}
 415              		.loc 1 204 10 view .LVU106
 416 0094 0020     		movs	r0, #0
 417              	.LVL33:
 204:Core/Src/ssd1306.c **** 	}
 418              		.loc 1 204 10 view .LVU107
 419 0096 F9E7     		b	.L27
 420              	.L40:
 421              		.align	2
 422              	.L39:
 423 0098 00000000 		.word	SSD1306
 424              		.cfi_endproc
 425              	.LFE71:
 427              		.section	.text.SSD1306_Puts,"ax",%progbits
 428              		.align	1
 429              		.global	SSD1306_Puts
ARM GAS  C:\Users\kroko\AppData\Local\Temp\ccWVPZuZ.s 			page 13


 430              		.syntax unified
 431              		.thumb
 432              		.thumb_func
 434              	SSD1306_Puts:
 435              	.LVL34:
 436              	.LFB72:
 225:Core/Src/ssd1306.c **** 
 226:Core/Src/ssd1306.c **** char SSD1306_Puts(char* str, FontDef_t* Font, SSD1306_COLOR_t color) {
 437              		.loc 1 226 70 is_stmt 1 view -0
 438              		.cfi_startproc
 439              		@ args = 0, pretend = 0, frame = 0
 440              		@ frame_needed = 0, uses_anonymous_args = 0
 441              		.loc 1 226 70 is_stmt 0 view .LVU109
 442 0000 70B5     		push	{r4, r5, r6, lr}
 443              		.cfi_def_cfa_offset 16
 444              		.cfi_offset 4, -16
 445              		.cfi_offset 5, -12
 446              		.cfi_offset 6, -8
 447              		.cfi_offset 14, -4
 448 0002 0446     		mov	r4, r0
 449 0004 0E46     		mov	r6, r1
 450 0006 1546     		mov	r5, r2
 227:Core/Src/ssd1306.c **** 	/* Write characters */
 228:Core/Src/ssd1306.c **** 	while (*str) {
 451              		.loc 1 228 2 is_stmt 1 view .LVU110
 452              		.loc 1 228 8 is_stmt 0 view .LVU111
 453 0008 00E0     		b	.L42
 454              	.LVL35:
 455              	.L46:
 229:Core/Src/ssd1306.c **** 		/* Write character by character */
 230:Core/Src/ssd1306.c **** 		if (SSD1306_Putc(*str, Font, color) != *str) {
 231:Core/Src/ssd1306.c **** 			/* Return error */
 232:Core/Src/ssd1306.c **** 			return *str;
 233:Core/Src/ssd1306.c **** 		}
 234:Core/Src/ssd1306.c **** 		
 235:Core/Src/ssd1306.c **** 		/* Increase string pointer */
 236:Core/Src/ssd1306.c **** 		str++;
 456              		.loc 1 236 3 is_stmt 1 view .LVU112
 457              		.loc 1 236 6 is_stmt 0 view .LVU113
 458 000a 0134     		adds	r4, r4, #1
 459              	.LVL36:
 460              	.L42:
 228:Core/Src/ssd1306.c **** 		/* Write character by character */
 461              		.loc 1 228 9 is_stmt 1 view .LVU114
 462 000c 2078     		ldrb	r0, [r4]	@ zero_extendqisi2
 463 000e 38B1     		cbz	r0, .L43
 230:Core/Src/ssd1306.c **** 			/* Return error */
 464              		.loc 1 230 3 view .LVU115
 230:Core/Src/ssd1306.c **** 			/* Return error */
 465              		.loc 1 230 7 is_stmt 0 view .LVU116
 466 0010 2A46     		mov	r2, r5
 467 0012 3146     		mov	r1, r6
 468 0014 FFF7FEFF 		bl	SSD1306_Putc
 469              	.LVL37:
 470 0018 0346     		mov	r3, r0
 230:Core/Src/ssd1306.c **** 			/* Return error */
 471              		.loc 1 230 42 discriminator 1 view .LVU117
ARM GAS  C:\Users\kroko\AppData\Local\Temp\ccWVPZuZ.s 			page 14


 472 001a 2078     		ldrb	r0, [r4]	@ zero_extendqisi2
 230:Core/Src/ssd1306.c **** 			/* Return error */
 473              		.loc 1 230 6 discriminator 1 view .LVU118
 474 001c 8342     		cmp	r3, r0
 475 001e F4D0     		beq	.L46
 476              	.L43:
 237:Core/Src/ssd1306.c **** 	}
 238:Core/Src/ssd1306.c **** 	
 239:Core/Src/ssd1306.c **** 	/* Everything OK, zero should be returned */
 240:Core/Src/ssd1306.c **** 	return *str;
 241:Core/Src/ssd1306.c **** }
 477              		.loc 1 241 1 view .LVU119
 478 0020 70BD     		pop	{r4, r5, r6, pc}
 479              		.loc 1 241 1 view .LVU120
 480              		.cfi_endproc
 481              	.LFE72:
 483              		.section	.text.SSD1306_DrawLine,"ax",%progbits
 484              		.align	1
 485              		.global	SSD1306_DrawLine
 486              		.syntax unified
 487              		.thumb
 488              		.thumb_func
 490              	SSD1306_DrawLine:
 491              	.LVL38:
 492              	.LFB73:
 242:Core/Src/ssd1306.c ****  
 243:Core/Src/ssd1306.c **** 
 244:Core/Src/ssd1306.c **** void SSD1306_DrawLine(uint16_t x0, uint16_t y0, uint16_t x1, uint16_t y1, SSD1306_COLOR_t c) {
 493              		.loc 1 244 94 is_stmt 1 view -0
 494              		.cfi_startproc
 495              		@ args = 4, pretend = 0, frame = 8
 496              		@ frame_needed = 0, uses_anonymous_args = 0
 497              		.loc 1 244 94 is_stmt 0 view .LVU122
 498 0000 2DE9F04F 		push	{r4, r5, r6, r7, r8, r9, r10, fp, lr}
 499              		.cfi_def_cfa_offset 36
 500              		.cfi_offset 4, -36
 501              		.cfi_offset 5, -32
 502              		.cfi_offset 6, -28
 503              		.cfi_offset 7, -24
 504              		.cfi_offset 8, -20
 505              		.cfi_offset 9, -16
 506              		.cfi_offset 10, -12
 507              		.cfi_offset 11, -8
 508              		.cfi_offset 14, -4
 509 0004 83B0     		sub	sp, sp, #12
 510              		.cfi_def_cfa_offset 48
 511 0006 0446     		mov	r4, r0
 512 0008 0E46     		mov	r6, r1
 513 000a 1746     		mov	r7, r2
 514 000c 9946     		mov	r9, r3
 515 000e 9DF83080 		ldrb	r8, [sp, #48]	@ zero_extendqisi2
 245:Core/Src/ssd1306.c **** 	int16_t dx, dy, sx, sy, err, e2, i, tmp; 
 516              		.loc 1 245 2 is_stmt 1 view .LVU123
 246:Core/Src/ssd1306.c **** 	
 247:Core/Src/ssd1306.c **** 	/* Check for overflow */
 248:Core/Src/ssd1306.c **** 	if (x0 >= SSD1306_WIDTH) {
 517              		.loc 1 248 2 view .LVU124
ARM GAS  C:\Users\kroko\AppData\Local\Temp\ccWVPZuZ.s 			page 15


 518              		.loc 1 248 5 is_stmt 0 view .LVU125
 519 0012 7F28     		cmp	r0, #127
 520 0014 00D9     		bls	.L48
 249:Core/Src/ssd1306.c **** 		x0 = SSD1306_WIDTH - 1;
 521              		.loc 1 249 6 view .LVU126
 522 0016 7F24     		movs	r4, #127
 523              	.L48:
 524              	.LVL39:
 250:Core/Src/ssd1306.c **** 	}
 251:Core/Src/ssd1306.c **** 	if (x1 >= SSD1306_WIDTH) {
 525              		.loc 1 251 2 is_stmt 1 view .LVU127
 526              		.loc 1 251 5 is_stmt 0 view .LVU128
 527 0018 7F2F     		cmp	r7, #127
 528 001a 00D9     		bls	.L49
 252:Core/Src/ssd1306.c **** 		x1 = SSD1306_WIDTH - 1;
 529              		.loc 1 252 6 view .LVU129
 530 001c 7F27     		movs	r7, #127
 531              	.L49:
 532              	.LVL40:
 253:Core/Src/ssd1306.c **** 	}
 254:Core/Src/ssd1306.c **** 	if (y0 >= SSD1306_HEIGHT) {
 533              		.loc 1 254 2 is_stmt 1 view .LVU130
 534              		.loc 1 254 5 is_stmt 0 view .LVU131
 535 001e 3F2E     		cmp	r6, #63
 536 0020 00D9     		bls	.L50
 255:Core/Src/ssd1306.c **** 		y0 = SSD1306_HEIGHT - 1;
 537              		.loc 1 255 6 view .LVU132
 538 0022 3F26     		movs	r6, #63
 539              	.L50:
 540              	.LVL41:
 256:Core/Src/ssd1306.c **** 	}
 257:Core/Src/ssd1306.c **** 	if (y1 >= SSD1306_HEIGHT) {
 541              		.loc 1 257 2 is_stmt 1 view .LVU133
 542              		.loc 1 257 5 is_stmt 0 view .LVU134
 543 0024 B9F13F0F 		cmp	r9, #63
 544 0028 01D9     		bls	.L51
 258:Core/Src/ssd1306.c **** 		y1 = SSD1306_HEIGHT - 1;
 545              		.loc 1 258 6 view .LVU135
 546 002a 4FF03F09 		mov	r9, #63
 547              	.L51:
 548              	.LVL42:
 259:Core/Src/ssd1306.c **** 	}
 260:Core/Src/ssd1306.c **** 	
 261:Core/Src/ssd1306.c **** 	dx = (x0 < x1) ? (x1 - x0) : (x0 - x1); 
 549              		.loc 1 261 2 is_stmt 1 view .LVU136
 550              		.loc 1 261 5 is_stmt 0 view .LVU137
 551 002e BC42     		cmp	r4, r7
 552 0030 1FD2     		bcs	.L52
 553              		.loc 1 261 23 discriminator 1 view .LVU138
 554 0032 A7EB040A 		sub	r10, r7, r4
 555              		.loc 1 261 5 discriminator 1 view .LVU139
 556 0036 0FFA8AFA 		sxth	r10, r10
 557              	.L53:
 558              	.LVL43:
 262:Core/Src/ssd1306.c **** 	dy = (y0 < y1) ? (y1 - y0) : (y0 - y1); 
 559              		.loc 1 262 2 is_stmt 1 view .LVU140
 560              		.loc 1 262 5 is_stmt 0 view .LVU141
ARM GAS  C:\Users\kroko\AppData\Local\Temp\ccWVPZuZ.s 			page 16


 561 003a 4E45     		cmp	r6, r9
 562 003c 1ED2     		bcs	.L54
 563              		.loc 1 262 23 discriminator 1 view .LVU142
 564 003e A9EB060B 		sub	fp, r9, r6
 565              		.loc 1 262 5 discriminator 1 view .LVU143
 566 0042 0FFA8BFB 		sxth	fp, fp
 567              	.L55:
 568              	.LVL44:
 263:Core/Src/ssd1306.c **** 	sx = (x0 < x1) ? 1 : -1; 
 569              		.loc 1 263 2 is_stmt 1 view .LVU144
 570              		.loc 1 263 5 is_stmt 0 view .LVU145
 571 0046 BC42     		cmp	r4, r7
 572 0048 1DD2     		bcs	.L78
 573              		.loc 1 263 5 discriminator 1 view .LVU146
 574 004a 0122     		movs	r2, #1
 575              	.L56:
 576              	.LVL45:
 264:Core/Src/ssd1306.c **** 	sy = (y0 < y1) ? 1 : -1; 
 577              		.loc 1 264 2 is_stmt 1 view .LVU147
 578              		.loc 1 264 5 is_stmt 0 view .LVU148
 579 004c 4E45     		cmp	r6, r9
 580 004e 1DD2     		bcs	.L79
 581              		.loc 1 264 5 discriminator 1 view .LVU149
 582 0050 0121     		movs	r1, #1
 583              	.L57:
 584              	.LVL46:
 265:Core/Src/ssd1306.c **** 	err = ((dx > dy) ? dx : -dy) / 2; 
 585              		.loc 1 265 2 is_stmt 1 view .LVU150
 586              		.loc 1 265 6 is_stmt 0 view .LVU151
 587 0052 DA45     		cmp	r10, fp
 588 0054 1DDD     		ble	.L58
 589              		.loc 1 265 6 discriminator 1 view .LVU152
 590 0056 0AEBDA75 		add	r5, r10, r10, lsr #31
 591 005a 6D10     		asrs	r5, r5, #1
 592              	.L59:
 593              	.LVL47:
 266:Core/Src/ssd1306.c **** 
 267:Core/Src/ssd1306.c **** 	if (dx == 0) {
 594              		.loc 1 267 2 is_stmt 1 view .LVU153
 595              		.loc 1 267 5 is_stmt 0 view .LVU154
 596 005c BAF1000F 		cmp	r10, #0
 597 0060 1DD0     		beq	.L83
 268:Core/Src/ssd1306.c **** 		if (y1 < y0) {
 269:Core/Src/ssd1306.c **** 			tmp = y1;
 270:Core/Src/ssd1306.c **** 			y1 = y0;
 271:Core/Src/ssd1306.c **** 			y0 = tmp;
 272:Core/Src/ssd1306.c **** 		}
 273:Core/Src/ssd1306.c **** 		
 274:Core/Src/ssd1306.c **** 		if (x1 < x0) {
 275:Core/Src/ssd1306.c **** 			tmp = x1;
 276:Core/Src/ssd1306.c **** 			x1 = x0;
 277:Core/Src/ssd1306.c **** 			x0 = tmp;
 278:Core/Src/ssd1306.c **** 		}
 279:Core/Src/ssd1306.c **** 		
 280:Core/Src/ssd1306.c **** 		/* Vertical line */
 281:Core/Src/ssd1306.c **** 		for (i = y0; i <= y1; i++) {
 282:Core/Src/ssd1306.c **** 			SSD1306_DrawPixel(x0, i, c);
ARM GAS  C:\Users\kroko\AppData\Local\Temp\ccWVPZuZ.s 			page 17


 283:Core/Src/ssd1306.c **** 		}
 284:Core/Src/ssd1306.c **** 		
 285:Core/Src/ssd1306.c **** 		/* Return from function */
 286:Core/Src/ssd1306.c **** 		return;
 287:Core/Src/ssd1306.c **** 	}
 288:Core/Src/ssd1306.c **** 	
 289:Core/Src/ssd1306.c **** 	if (dy == 0) {
 598              		.loc 1 289 2 is_stmt 1 view .LVU155
 599              		.loc 1 289 5 is_stmt 0 view .LVU156
 600 0062 BBF1000F 		cmp	fp, #0
 601 0066 33D0     		beq	.L84
 602 0068 0092     		str	r2, [sp]
 603 006a CDF80490 		str	r9, [sp, #4]
 604 006e 8946     		mov	r9, r1
 605              	.LVL48:
 606              		.loc 1 289 5 view .LVU157
 607 0070 51E0     		b	.L66
 608              	.LVL49:
 609              	.L52:
 261:Core/Src/ssd1306.c **** 	dy = (y0 < y1) ? (y1 - y0) : (y0 - y1); 
 610              		.loc 1 261 35 discriminator 2 view .LVU158
 611 0072 A4EB070A 		sub	r10, r4, r7
 261:Core/Src/ssd1306.c **** 	dy = (y0 < y1) ? (y1 - y0) : (y0 - y1); 
 612              		.loc 1 261 5 discriminator 2 view .LVU159
 613 0076 0FFA8AFA 		sxth	r10, r10
 614 007a DEE7     		b	.L53
 615              	.LVL50:
 616              	.L54:
 262:Core/Src/ssd1306.c **** 	sx = (x0 < x1) ? 1 : -1; 
 617              		.loc 1 262 35 discriminator 2 view .LVU160
 618 007c A6EB090B 		sub	fp, r6, r9
 262:Core/Src/ssd1306.c **** 	sx = (x0 < x1) ? 1 : -1; 
 619              		.loc 1 262 5 discriminator 2 view .LVU161
 620 0080 0FFA8BFB 		sxth	fp, fp
 621 0084 DFE7     		b	.L55
 622              	.LVL51:
 623              	.L78:
 263:Core/Src/ssd1306.c **** 	sy = (y0 < y1) ? 1 : -1; 
 624              		.loc 1 263 5 discriminator 2 view .LVU162
 625 0086 4FF0FF32 		mov	r2, #-1
 626 008a DFE7     		b	.L56
 627              	.LVL52:
 628              	.L79:
 264:Core/Src/ssd1306.c **** 	err = ((dx > dy) ? dx : -dy) / 2; 
 629              		.loc 1 264 5 discriminator 2 view .LVU163
 630 008c 4FF0FF31 		mov	r1, #-1
 631 0090 DFE7     		b	.L57
 632              	.LVL53:
 633              	.L58:
 265:Core/Src/ssd1306.c **** 
 634              		.loc 1 265 6 discriminator 2 view .LVU164
 635 0092 0BEBDB75 		add	r5, fp, fp, lsr #31
 636 0096 6D10     		asrs	r5, r5, #1
 637 0098 6D42     		rsbs	r5, r5, #0
 638 009a 2DB2     		sxth	r5, r5
 639 009c DEE7     		b	.L59
 640              	.LVL54:
ARM GAS  C:\Users\kroko\AppData\Local\Temp\ccWVPZuZ.s 			page 18


 641              	.L83:
 268:Core/Src/ssd1306.c **** 			tmp = y1;
 642              		.loc 1 268 3 is_stmt 1 view .LVU165
 268:Core/Src/ssd1306.c **** 			tmp = y1;
 643              		.loc 1 268 6 is_stmt 0 view .LVU166
 644 009e 4E45     		cmp	r6, r9
 645 00a0 02D8     		bhi	.L61
 646 00a2 4B46     		mov	r3, r9
 647 00a4 B146     		mov	r9, r6
 648              	.LVL55:
 268:Core/Src/ssd1306.c **** 			tmp = y1;
 649              		.loc 1 268 6 view .LVU167
 650 00a6 1E46     		mov	r6, r3
 651              	.LVL56:
 652              	.L61:
 274:Core/Src/ssd1306.c **** 			tmp = x1;
 653              		.loc 1 274 3 is_stmt 1 view .LVU168
 274:Core/Src/ssd1306.c **** 			tmp = x1;
 654              		.loc 1 274 6 is_stmt 0 view .LVU169
 655 00a8 BC42     		cmp	r4, r7
 656 00aa 00D8     		bhi	.L62
 657 00ac 2746     		mov	r7, r4
 658              	.LVL57:
 659              	.L62:
 281:Core/Src/ssd1306.c **** 			SSD1306_DrawPixel(x0, i, c);
 660              		.loc 1 281 3 is_stmt 1 view .LVU170
 281:Core/Src/ssd1306.c **** 			SSD1306_DrawPixel(x0, i, c);
 661              		.loc 1 281 10 is_stmt 0 view .LVU171
 662 00ae 0FFA89F9 		sxth	r9, r9
 663              	.LVL58:
 281:Core/Src/ssd1306.c **** 			SSD1306_DrawPixel(x0, i, c);
 664              		.loc 1 281 3 view .LVU172
 665 00b2 0AE0     		b	.L63
 666              	.LVL59:
 667              	.L64:
 282:Core/Src/ssd1306.c **** 		}
 668              		.loc 1 282 4 is_stmt 1 view .LVU173
 669 00b4 1FFA89F9 		uxth	r9, r9
 282:Core/Src/ssd1306.c **** 		}
 670              		.loc 1 282 4 is_stmt 0 view .LVU174
 671 00b8 4246     		mov	r2, r8
 672 00ba 4946     		mov	r1, r9
 673 00bc 3846     		mov	r0, r7
 674 00be FFF7FEFF 		bl	SSD1306_DrawPixel
 675              	.LVL60:
 281:Core/Src/ssd1306.c **** 			SSD1306_DrawPixel(x0, i, c);
 676              		.loc 1 281 26 is_stmt 1 discriminator 3 view .LVU175
 677 00c2 09F10109 		add	r9, r9, #1
 678              	.LVL61:
 281:Core/Src/ssd1306.c **** 			SSD1306_DrawPixel(x0, i, c);
 679              		.loc 1 281 26 is_stmt 0 discriminator 3 view .LVU176
 680 00c6 0FFA89F9 		sxth	r9, r9
 681              	.LVL62:
 682              	.L63:
 281:Core/Src/ssd1306.c **** 			SSD1306_DrawPixel(x0, i, c);
 683              		.loc 1 281 18 is_stmt 1 discriminator 1 view .LVU177
 684 00ca B145     		cmp	r9, r6
ARM GAS  C:\Users\kroko\AppData\Local\Temp\ccWVPZuZ.s 			page 19


 685 00cc F2DD     		ble	.L64
 281:Core/Src/ssd1306.c **** 			SSD1306_DrawPixel(x0, i, c);
 686              		.loc 1 281 18 is_stmt 0 discriminator 1 view .LVU178
 687 00ce 17E0     		b	.L47
 688              	.LVL63:
 689              	.L84:
 290:Core/Src/ssd1306.c **** 		if (y1 < y0) {
 690              		.loc 1 290 3 is_stmt 1 view .LVU179
 691              		.loc 1 290 6 is_stmt 0 view .LVU180
 692 00d0 4E45     		cmp	r6, r9
 693 00d2 00D8     		bhi	.L67
 694 00d4 B146     		mov	r9, r6
 695              	.LVL64:
 696              	.L67:
 291:Core/Src/ssd1306.c **** 			tmp = y1;
 292:Core/Src/ssd1306.c **** 			y1 = y0;
 293:Core/Src/ssd1306.c **** 			y0 = tmp;
 294:Core/Src/ssd1306.c **** 		}
 295:Core/Src/ssd1306.c **** 		
 296:Core/Src/ssd1306.c **** 		if (x1 < x0) {
 697              		.loc 1 296 3 is_stmt 1 view .LVU181
 698              		.loc 1 296 6 is_stmt 0 view .LVU182
 699 00d6 BC42     		cmp	r4, r7
 700 00d8 02D8     		bhi	.L68
 701 00da 3B46     		mov	r3, r7
 702 00dc 2746     		mov	r7, r4
 703              	.LVL65:
 704              		.loc 1 296 6 view .LVU183
 705 00de 1C46     		mov	r4, r3
 706              	.LVL66:
 707              	.L68:
 297:Core/Src/ssd1306.c **** 			tmp = x1;
 298:Core/Src/ssd1306.c **** 			x1 = x0;
 299:Core/Src/ssd1306.c **** 			x0 = tmp;
 300:Core/Src/ssd1306.c **** 		}
 301:Core/Src/ssd1306.c **** 		
 302:Core/Src/ssd1306.c **** 		/* Horizontal line */
 303:Core/Src/ssd1306.c **** 		for (i = x0; i <= x1; i++) {
 708              		.loc 1 303 3 is_stmt 1 view .LVU184
 709              		.loc 1 303 10 is_stmt 0 view .LVU185
 710 00e0 3FB2     		sxth	r7, r7
 711              	.LVL67:
 712              		.loc 1 303 3 view .LVU186
 713 00e2 07E0     		b	.L69
 714              	.LVL68:
 715              	.L70:
 304:Core/Src/ssd1306.c **** 			SSD1306_DrawPixel(i, y0, c);
 716              		.loc 1 304 4 is_stmt 1 view .LVU187
 717 00e4 BFB2     		uxth	r7, r7
 718              		.loc 1 304 4 is_stmt 0 view .LVU188
 719 00e6 4246     		mov	r2, r8
 720 00e8 4946     		mov	r1, r9
 721 00ea 3846     		mov	r0, r7
 722 00ec FFF7FEFF 		bl	SSD1306_DrawPixel
 723              	.LVL69:
 303:Core/Src/ssd1306.c **** 			SSD1306_DrawPixel(i, y0, c);
 724              		.loc 1 303 26 is_stmt 1 discriminator 3 view .LVU189
ARM GAS  C:\Users\kroko\AppData\Local\Temp\ccWVPZuZ.s 			page 20


 725 00f0 0137     		adds	r7, r7, #1
 726              	.LVL70:
 303:Core/Src/ssd1306.c **** 			SSD1306_DrawPixel(i, y0, c);
 727              		.loc 1 303 26 is_stmt 0 discriminator 3 view .LVU190
 728 00f2 3FB2     		sxth	r7, r7
 729              	.LVL71:
 730              	.L69:
 303:Core/Src/ssd1306.c **** 			SSD1306_DrawPixel(i, y0, c);
 731              		.loc 1 303 18 is_stmt 1 discriminator 1 view .LVU191
 732 00f4 A742     		cmp	r7, r4
 733 00f6 F5DD     		ble	.L70
 303:Core/Src/ssd1306.c **** 			SSD1306_DrawPixel(i, y0, c);
 734              		.loc 1 303 18 is_stmt 0 discriminator 1 view .LVU192
 735 00f8 02E0     		b	.L47
 736              	.LVL72:
 737              	.L85:
 305:Core/Src/ssd1306.c **** 		}
 306:Core/Src/ssd1306.c **** 		
 307:Core/Src/ssd1306.c **** 		/* Return from function */
 308:Core/Src/ssd1306.c **** 		return;
 309:Core/Src/ssd1306.c **** 	}
 310:Core/Src/ssd1306.c **** 	
 311:Core/Src/ssd1306.c **** 	while (1) {
 312:Core/Src/ssd1306.c **** 		SSD1306_DrawPixel(x0, y0, c);
 313:Core/Src/ssd1306.c **** 		if (x0 == x1 && y0 == y1) {
 738              		.loc 1 313 16 discriminator 1 view .LVU193
 739 00fa 019B     		ldr	r3, [sp, #4]
 740 00fc 9E42     		cmp	r6, r3
 741 00fe 11D1     		bne	.L71
 742              	.LVL73:
 743              	.L47:
 314:Core/Src/ssd1306.c **** 			break;
 315:Core/Src/ssd1306.c **** 		}
 316:Core/Src/ssd1306.c **** 		e2 = err; 
 317:Core/Src/ssd1306.c **** 		if (e2 > -dx) {
 318:Core/Src/ssd1306.c **** 			err -= dy;
 319:Core/Src/ssd1306.c **** 			x0 += sx;
 320:Core/Src/ssd1306.c **** 		} 
 321:Core/Src/ssd1306.c **** 		if (e2 < dy) {
 322:Core/Src/ssd1306.c **** 			err += dx;
 323:Core/Src/ssd1306.c **** 			y0 += sy;
 324:Core/Src/ssd1306.c **** 		} 
 325:Core/Src/ssd1306.c **** 	}
 326:Core/Src/ssd1306.c **** }
 744              		.loc 1 326 1 view .LVU194
 745 0100 03B0     		add	sp, sp, #12
 746              		.cfi_remember_state
 747              		.cfi_def_cfa_offset 36
 748              		@ sp needed
 749 0102 BDE8F08F 		pop	{r4, r5, r6, r7, r8, r9, r10, fp, pc}
 750              	.LVL74:
 751              	.L80:
 752              		.cfi_restore_state
 753              		.loc 1 326 1 view .LVU195
 754 0106 2B46     		mov	r3, r5
 755              	.LVL75:
 756              	.L72:
ARM GAS  C:\Users\kroko\AppData\Local\Temp\ccWVPZuZ.s 			page 21


 321:Core/Src/ssd1306.c **** 			err += dx;
 757              		.loc 1 321 3 is_stmt 1 view .LVU196
 321:Core/Src/ssd1306.c **** 			err += dx;
 758              		.loc 1 321 6 is_stmt 0 view .LVU197
 759 0108 5D45     		cmp	r5, fp
 760 010a 03DA     		bge	.L73
 322:Core/Src/ssd1306.c **** 			y0 += sy;
 761              		.loc 1 322 4 is_stmt 1 view .LVU198
 322:Core/Src/ssd1306.c **** 			y0 += sy;
 762              		.loc 1 322 8 is_stmt 0 view .LVU199
 763 010c 5344     		add	r3, r3, r10
 764              	.LVL76:
 322:Core/Src/ssd1306.c **** 			y0 += sy;
 765              		.loc 1 322 8 view .LVU200
 766 010e 1BB2     		sxth	r3, r3
 767              	.LVL77:
 323:Core/Src/ssd1306.c **** 		} 
 768              		.loc 1 323 4 is_stmt 1 view .LVU201
 323:Core/Src/ssd1306.c **** 		} 
 769              		.loc 1 323 7 is_stmt 0 view .LVU202
 770 0110 4E44     		add	r6, r6, r9
 771              	.LVL78:
 323:Core/Src/ssd1306.c **** 		} 
 772              		.loc 1 323 7 view .LVU203
 773 0112 B6B2     		uxth	r6, r6
 774              	.LVL79:
 775              	.L73:
 296:Core/Src/ssd1306.c **** 			tmp = x1;
 776              		.loc 1 296 6 view .LVU204
 777 0114 1D46     		mov	r5, r3
 778              	.LVL80:
 779              	.L66:
 311:Core/Src/ssd1306.c **** 		SSD1306_DrawPixel(x0, y0, c);
 780              		.loc 1 311 2 is_stmt 1 view .LVU205
 312:Core/Src/ssd1306.c **** 		if (x0 == x1 && y0 == y1) {
 781              		.loc 1 312 3 view .LVU206
 782 0116 4246     		mov	r2, r8
 783 0118 3146     		mov	r1, r6
 784 011a 2046     		mov	r0, r4
 785 011c FFF7FEFF 		bl	SSD1306_DrawPixel
 786              	.LVL81:
 313:Core/Src/ssd1306.c **** 			break;
 787              		.loc 1 313 3 view .LVU207
 313:Core/Src/ssd1306.c **** 			break;
 788              		.loc 1 313 6 is_stmt 0 view .LVU208
 789 0120 BC42     		cmp	r4, r7
 790 0122 EAD0     		beq	.L85
 791              	.L71:
 316:Core/Src/ssd1306.c **** 		if (e2 > -dx) {
 792              		.loc 1 316 3 is_stmt 1 view .LVU209
 793              	.LVL82:
 317:Core/Src/ssd1306.c **** 			err -= dy;
 794              		.loc 1 317 3 view .LVU210
 317:Core/Src/ssd1306.c **** 			err -= dy;
 795              		.loc 1 317 12 is_stmt 0 view .LVU211
 796 0124 CAF10003 		rsb	r3, r10, #0
 317:Core/Src/ssd1306.c **** 			err -= dy;
ARM GAS  C:\Users\kroko\AppData\Local\Temp\ccWVPZuZ.s 			page 22


 797              		.loc 1 317 6 view .LVU212
 798 0128 9D42     		cmp	r5, r3
 799 012a ECDD     		ble	.L80
 318:Core/Src/ssd1306.c **** 			x0 += sx;
 800              		.loc 1 318 4 is_stmt 1 view .LVU213
 318:Core/Src/ssd1306.c **** 			x0 += sx;
 801              		.loc 1 318 8 is_stmt 0 view .LVU214
 802 012c A5EB0B03 		sub	r3, r5, fp
 803 0130 1BB2     		sxth	r3, r3
 804              	.LVL83:
 319:Core/Src/ssd1306.c **** 		} 
 805              		.loc 1 319 4 is_stmt 1 view .LVU215
 319:Core/Src/ssd1306.c **** 		} 
 806              		.loc 1 319 7 is_stmt 0 view .LVU216
 807 0132 009A     		ldr	r2, [sp]
 808 0134 1444     		add	r4, r4, r2
 809              	.LVL84:
 319:Core/Src/ssd1306.c **** 		} 
 810              		.loc 1 319 7 view .LVU217
 811 0136 A4B2     		uxth	r4, r4
 812              	.LVL85:
 319:Core/Src/ssd1306.c **** 		} 
 813              		.loc 1 319 7 view .LVU218
 814 0138 E6E7     		b	.L72
 815              		.cfi_endproc
 816              	.LFE73:
 818              		.section	.text.SSD1306_DrawRectangle,"ax",%progbits
 819              		.align	1
 820              		.global	SSD1306_DrawRectangle
 821              		.syntax unified
 822              		.thumb
 823              		.thumb_func
 825              	SSD1306_DrawRectangle:
 826              	.LVL86:
 827              	.LFB74:
 327:Core/Src/ssd1306.c **** 
 328:Core/Src/ssd1306.c **** void SSD1306_DrawRectangle(uint16_t x, uint16_t y, uint16_t w, uint16_t h, SSD1306_COLOR_t c) {
 828              		.loc 1 328 95 is_stmt 1 view -0
 829              		.cfi_startproc
 830              		@ args = 4, pretend = 0, frame = 0
 831              		@ frame_needed = 0, uses_anonymous_args = 0
 832              		.loc 1 328 95 is_stmt 0 view .LVU220
 833 0000 2DE9F041 		push	{r4, r5, r6, r7, r8, lr}
 834              		.cfi_def_cfa_offset 24
 835              		.cfi_offset 4, -24
 836              		.cfi_offset 5, -20
 837              		.cfi_offset 6, -16
 838              		.cfi_offset 7, -12
 839              		.cfi_offset 8, -8
 840              		.cfi_offset 14, -4
 841 0004 82B0     		sub	sp, sp, #8
 842              		.cfi_def_cfa_offset 32
 843 0006 9DF82080 		ldrb	r8, [sp, #32]	@ zero_extendqisi2
 329:Core/Src/ssd1306.c **** 	/* Check input parameters */
 330:Core/Src/ssd1306.c **** 	if (
 844              		.loc 1 330 2 is_stmt 1 view .LVU221
 845              		.loc 1 330 5 is_stmt 0 view .LVU222
ARM GAS  C:\Users\kroko\AppData\Local\Temp\ccWVPZuZ.s 			page 23


 846 000a 7F28     		cmp	r0, #127
 847 000c 34D8     		bhi	.L86
 848 000e 0646     		mov	r6, r0
 849 0010 0F46     		mov	r7, r1
 850 0012 1D46     		mov	r5, r3
 331:Core/Src/ssd1306.c **** 		x >= SSD1306_WIDTH ||
 851              		.loc 1 331 22 view .LVU223
 852 0014 3F29     		cmp	r1, #63
 853 0016 2FD8     		bhi	.L86
 332:Core/Src/ssd1306.c **** 		y >= SSD1306_HEIGHT
 333:Core/Src/ssd1306.c **** 	) {
 334:Core/Src/ssd1306.c **** 		/* Return error */
 335:Core/Src/ssd1306.c **** 		return;
 336:Core/Src/ssd1306.c **** 	}
 337:Core/Src/ssd1306.c **** 	
 338:Core/Src/ssd1306.c **** 	/* Check width and height */
 339:Core/Src/ssd1306.c **** 	if ((x + w) >= SSD1306_WIDTH) {
 854              		.loc 1 339 2 is_stmt 1 view .LVU224
 855              		.loc 1 339 9 is_stmt 0 view .LVU225
 856 0018 8318     		adds	r3, r0, r2
 857              	.LVL87:
 858              		.loc 1 339 5 view .LVU226
 859 001a 7F2B     		cmp	r3, #127
 860 001c 02DD     		ble	.L88
 340:Core/Src/ssd1306.c **** 		w = SSD1306_WIDTH - x;
 861              		.loc 1 340 3 is_stmt 1 view .LVU227
 862              		.loc 1 340 5 is_stmt 0 view .LVU228
 863 001e C0F18002 		rsb	r2, r0, #128
 864              	.LVL88:
 865              		.loc 1 340 5 view .LVU229
 866 0022 92B2     		uxth	r2, r2
 867              	.LVL89:
 868              	.L88:
 341:Core/Src/ssd1306.c **** 	}
 342:Core/Src/ssd1306.c **** 	if ((y + h) >= SSD1306_HEIGHT) {
 869              		.loc 1 342 2 is_stmt 1 view .LVU230
 870              		.loc 1 342 9 is_stmt 0 view .LVU231
 871 0024 7B19     		adds	r3, r7, r5
 872              		.loc 1 342 5 view .LVU232
 873 0026 3F2B     		cmp	r3, #63
 874 0028 02DD     		ble	.L89
 343:Core/Src/ssd1306.c **** 		h = SSD1306_HEIGHT - y;
 875              		.loc 1 343 3 is_stmt 1 view .LVU233
 876              		.loc 1 343 5 is_stmt 0 view .LVU234
 877 002a C7F14005 		rsb	r5, r7, #64
 878              	.LVL90:
 879              		.loc 1 343 5 view .LVU235
 880 002e ADB2     		uxth	r5, r5
 881              	.LVL91:
 882              	.L89:
 344:Core/Src/ssd1306.c **** 	}
 345:Core/Src/ssd1306.c **** 	
 346:Core/Src/ssd1306.c **** 	/* Draw 4 lines */
 347:Core/Src/ssd1306.c **** 	SSD1306_DrawLine(x, y, x + w, y, c);         /* Top line */
 883              		.loc 1 347 2 is_stmt 1 view .LVU236
 884 0030 9419     		adds	r4, r2, r6
 885 0032 A4B2     		uxth	r4, r4
ARM GAS  C:\Users\kroko\AppData\Local\Temp\ccWVPZuZ.s 			page 24


 886 0034 CDF80080 		str	r8, [sp]
 887 0038 3B46     		mov	r3, r7
 888 003a 2246     		mov	r2, r4
 889              	.LVL92:
 890              		.loc 1 347 2 is_stmt 0 view .LVU237
 891 003c 3946     		mov	r1, r7
 892              	.LVL93:
 893              		.loc 1 347 2 view .LVU238
 894 003e 3046     		mov	r0, r6
 895              	.LVL94:
 896              		.loc 1 347 2 view .LVU239
 897 0040 FFF7FEFF 		bl	SSD1306_DrawLine
 898              	.LVL95:
 348:Core/Src/ssd1306.c **** 	SSD1306_DrawLine(x, y + h, x + w, y + h, c); /* Bottom line */
 899              		.loc 1 348 2 is_stmt 1 view .LVU240
 900 0044 3D44     		add	r5, r5, r7
 901              	.LVL96:
 902              		.loc 1 348 2 is_stmt 0 view .LVU241
 903 0046 ADB2     		uxth	r5, r5
 904 0048 CDF80080 		str	r8, [sp]
 905 004c 2B46     		mov	r3, r5
 906 004e 2246     		mov	r2, r4
 907 0050 2946     		mov	r1, r5
 908 0052 3046     		mov	r0, r6
 909 0054 FFF7FEFF 		bl	SSD1306_DrawLine
 910              	.LVL97:
 349:Core/Src/ssd1306.c **** 	SSD1306_DrawLine(x, y, x, y + h, c);         /* Left line */
 911              		.loc 1 349 2 is_stmt 1 view .LVU242
 912 0058 CDF80080 		str	r8, [sp]
 913 005c 2B46     		mov	r3, r5
 914 005e 3246     		mov	r2, r6
 915 0060 3946     		mov	r1, r7
 916 0062 3046     		mov	r0, r6
 917 0064 FFF7FEFF 		bl	SSD1306_DrawLine
 918              	.LVL98:
 350:Core/Src/ssd1306.c **** 	SSD1306_DrawLine(x + w, y, x + w, y + h, c); /* Right line */
 919              		.loc 1 350 2 view .LVU243
 920 0068 CDF80080 		str	r8, [sp]
 921 006c 2B46     		mov	r3, r5
 922 006e 2246     		mov	r2, r4
 923 0070 3946     		mov	r1, r7
 924 0072 2046     		mov	r0, r4
 925 0074 FFF7FEFF 		bl	SSD1306_DrawLine
 926              	.LVL99:
 927              	.L86:
 351:Core/Src/ssd1306.c **** }
 928              		.loc 1 351 1 is_stmt 0 view .LVU244
 929 0078 02B0     		add	sp, sp, #8
 930              		.cfi_def_cfa_offset 24
 931              		@ sp needed
 932 007a BDE8F081 		pop	{r4, r5, r6, r7, r8, pc}
 933              		.loc 1 351 1 view .LVU245
 934              		.cfi_endproc
 935              	.LFE74:
 937              		.section	.text.SSD1306_DrawFilledRectangle,"ax",%progbits
 938              		.align	1
 939              		.global	SSD1306_DrawFilledRectangle
ARM GAS  C:\Users\kroko\AppData\Local\Temp\ccWVPZuZ.s 			page 25


 940              		.syntax unified
 941              		.thumb
 942              		.thumb_func
 944              	SSD1306_DrawFilledRectangle:
 945              	.LVL100:
 946              	.LFB75:
 352:Core/Src/ssd1306.c **** 
 353:Core/Src/ssd1306.c **** void SSD1306_DrawFilledRectangle(uint16_t x, uint16_t y, uint16_t w, uint16_t h, SSD1306_COLOR_t c)
 947              		.loc 1 353 101 is_stmt 1 view -0
 948              		.cfi_startproc
 949              		@ args = 4, pretend = 0, frame = 0
 950              		@ frame_needed = 0, uses_anonymous_args = 0
 951              		.loc 1 353 101 is_stmt 0 view .LVU247
 952 0000 2DE9F043 		push	{r4, r5, r6, r7, r8, r9, lr}
 953              		.cfi_def_cfa_offset 28
 954              		.cfi_offset 4, -28
 955              		.cfi_offset 5, -24
 956              		.cfi_offset 6, -20
 957              		.cfi_offset 7, -16
 958              		.cfi_offset 8, -12
 959              		.cfi_offset 9, -8
 960              		.cfi_offset 14, -4
 961 0004 83B0     		sub	sp, sp, #12
 962              		.cfi_def_cfa_offset 40
 963 0006 9DF82890 		ldrb	r9, [sp, #40]	@ zero_extendqisi2
 354:Core/Src/ssd1306.c **** 	uint8_t i;
 964              		.loc 1 354 2 is_stmt 1 view .LVU248
 355:Core/Src/ssd1306.c **** 	
 356:Core/Src/ssd1306.c **** 	/* Check input parameters */
 357:Core/Src/ssd1306.c **** 	if (
 965              		.loc 1 357 2 view .LVU249
 966              		.loc 1 357 5 is_stmt 0 view .LVU250
 967 000a 7F28     		cmp	r0, #127
 968 000c 23D8     		bhi	.L91
 969 000e 0546     		mov	r5, r0
 970 0010 0F46     		mov	r7, r1
 971 0012 9046     		mov	r8, r2
 972 0014 1E46     		mov	r6, r3
 358:Core/Src/ssd1306.c **** 		x >= SSD1306_WIDTH ||
 973              		.loc 1 358 22 view .LVU251
 974 0016 3F29     		cmp	r1, #63
 975 0018 1DD8     		bhi	.L91
 359:Core/Src/ssd1306.c **** 		y >= SSD1306_HEIGHT
 360:Core/Src/ssd1306.c **** 	) {
 361:Core/Src/ssd1306.c **** 		/* Return error */
 362:Core/Src/ssd1306.c **** 		return;
 363:Core/Src/ssd1306.c **** 	}
 364:Core/Src/ssd1306.c **** 	
 365:Core/Src/ssd1306.c **** 	/* Check width and height */
 366:Core/Src/ssd1306.c **** 	if ((x + w) >= SSD1306_WIDTH) {
 976              		.loc 1 366 2 is_stmt 1 view .LVU252
 977              		.loc 1 366 9 is_stmt 0 view .LVU253
 978 001a 8318     		adds	r3, r0, r2
 979              	.LVL101:
 980              		.loc 1 366 5 view .LVU254
 981 001c 7F2B     		cmp	r3, #127
 982 001e 03DD     		ble	.L93
ARM GAS  C:\Users\kroko\AppData\Local\Temp\ccWVPZuZ.s 			page 26


 367:Core/Src/ssd1306.c **** 		w = SSD1306_WIDTH - x;
 983              		.loc 1 367 3 is_stmt 1 view .LVU255
 984              		.loc 1 367 5 is_stmt 0 view .LVU256
 985 0020 C0F18008 		rsb	r8, r0, #128
 986 0024 1FFA88F8 		uxth	r8, r8
 987              	.LVL102:
 988              	.L93:
 368:Core/Src/ssd1306.c **** 	}
 369:Core/Src/ssd1306.c **** 	if ((y + h) >= SSD1306_HEIGHT) {
 989              		.loc 1 369 2 is_stmt 1 view .LVU257
 990              		.loc 1 369 9 is_stmt 0 view .LVU258
 991 0028 BB19     		adds	r3, r7, r6
 992              		.loc 1 369 5 view .LVU259
 993 002a 3F2B     		cmp	r3, #63
 994 002c 02DD     		ble	.L94
 370:Core/Src/ssd1306.c **** 		h = SSD1306_HEIGHT - y;
 995              		.loc 1 370 3 is_stmt 1 view .LVU260
 996              		.loc 1 370 5 is_stmt 0 view .LVU261
 997 002e C7F14006 		rsb	r6, r7, #64
 998              	.LVL103:
 999              		.loc 1 370 5 view .LVU262
 1000 0032 B6B2     		uxth	r6, r6
 1001              	.LVL104:
 1002              	.L94:
 371:Core/Src/ssd1306.c **** 	}
 372:Core/Src/ssd1306.c **** 	
 373:Core/Src/ssd1306.c **** 	/* Draw lines */
 374:Core/Src/ssd1306.c **** 	for (i = 0; i <= h; i++) {
 1003              		.loc 1 374 2 is_stmt 1 view .LVU263
 1004              		.loc 1 374 9 is_stmt 0 view .LVU264
 1005 0034 0024     		movs	r4, #0
 1006              		.loc 1 374 2 view .LVU265
 1007 0036 0CE0     		b	.L95
 1008              	.LVL105:
 1009              	.L96:
 375:Core/Src/ssd1306.c **** 		/* Draw lines */
 376:Core/Src/ssd1306.c **** 		SSD1306_DrawLine(x, y + i, x + w, y + i, c);
 1010              		.loc 1 376 3 is_stmt 1 view .LVU266
 1011 0038 E119     		adds	r1, r4, r7
 1012 003a 89B2     		uxth	r1, r1
 1013 003c 08EB0502 		add	r2, r8, r5
 1014 0040 CDF80090 		str	r9, [sp]
 1015 0044 0B46     		mov	r3, r1
 1016 0046 92B2     		uxth	r2, r2
 1017 0048 2846     		mov	r0, r5
 1018 004a FFF7FEFF 		bl	SSD1306_DrawLine
 1019              	.LVL106:
 374:Core/Src/ssd1306.c **** 		/* Draw lines */
 1020              		.loc 1 374 23 discriminator 3 view .LVU267
 1021 004e 0134     		adds	r4, r4, #1
 1022              	.LVL107:
 374:Core/Src/ssd1306.c **** 		/* Draw lines */
 1023              		.loc 1 374 23 is_stmt 0 discriminator 3 view .LVU268
 1024 0050 E4B2     		uxtb	r4, r4
 1025              	.LVL108:
 1026              	.L95:
 374:Core/Src/ssd1306.c **** 		/* Draw lines */
ARM GAS  C:\Users\kroko\AppData\Local\Temp\ccWVPZuZ.s 			page 27


 1027              		.loc 1 374 16 is_stmt 1 discriminator 1 view .LVU269
 1028 0052 B442     		cmp	r4, r6
 1029 0054 F0D9     		bls	.L96
 1030              	.LVL109:
 1031              	.L91:
 377:Core/Src/ssd1306.c **** 	}
 378:Core/Src/ssd1306.c **** }
 1032              		.loc 1 378 1 is_stmt 0 view .LVU270
 1033 0056 03B0     		add	sp, sp, #12
 1034              		.cfi_def_cfa_offset 28
 1035              		@ sp needed
 1036 0058 BDE8F083 		pop	{r4, r5, r6, r7, r8, r9, pc}
 1037              		.loc 1 378 1 view .LVU271
 1038              		.cfi_endproc
 1039              	.LFE75:
 1041              		.section	.text.SSD1306_DrawTriangle,"ax",%progbits
 1042              		.align	1
 1043              		.global	SSD1306_DrawTriangle
 1044              		.syntax unified
 1045              		.thumb
 1046              		.thumb_func
 1048              	SSD1306_DrawTriangle:
 1049              	.LVL110:
 1050              	.LFB76:
 379:Core/Src/ssd1306.c **** 
 380:Core/Src/ssd1306.c **** void SSD1306_DrawTriangle(uint16_t x1, uint16_t y1, uint16_t x2, uint16_t y2, uint16_t x3, uint16_t
 1051              		.loc 1 380 128 is_stmt 1 view -0
 1052              		.cfi_startproc
 1053              		@ args = 12, pretend = 0, frame = 0
 1054              		@ frame_needed = 0, uses_anonymous_args = 0
 1055              		.loc 1 380 128 is_stmt 0 view .LVU273
 1056 0000 2DE9F047 		push	{r4, r5, r6, r7, r8, r9, r10, lr}
 1057              		.cfi_def_cfa_offset 32
 1058              		.cfi_offset 4, -32
 1059              		.cfi_offset 5, -28
 1060              		.cfi_offset 6, -24
 1061              		.cfi_offset 7, -20
 1062              		.cfi_offset 8, -16
 1063              		.cfi_offset 9, -12
 1064              		.cfi_offset 10, -8
 1065              		.cfi_offset 14, -4
 1066 0004 82B0     		sub	sp, sp, #8
 1067              		.cfi_def_cfa_offset 40
 1068 0006 0446     		mov	r4, r0
 1069 0008 0D46     		mov	r5, r1
 1070 000a 1746     		mov	r7, r2
 1071 000c 9846     		mov	r8, r3
 1072 000e BDF82890 		ldrh	r9, [sp, #40]
 1073 0012 BDF82CA0 		ldrh	r10, [sp, #44]
 1074 0016 9DF83060 		ldrb	r6, [sp, #48]	@ zero_extendqisi2
 381:Core/Src/ssd1306.c **** 	/* Draw lines */
 382:Core/Src/ssd1306.c **** 	SSD1306_DrawLine(x1, y1, x2, y2, color);
 1075              		.loc 1 382 2 is_stmt 1 view .LVU274
 1076 001a 0096     		str	r6, [sp]
 1077 001c FFF7FEFF 		bl	SSD1306_DrawLine
 1078              	.LVL111:
 383:Core/Src/ssd1306.c **** 	SSD1306_DrawLine(x2, y2, x3, y3, color);
ARM GAS  C:\Users\kroko\AppData\Local\Temp\ccWVPZuZ.s 			page 28


 1079              		.loc 1 383 2 view .LVU275
 1080 0020 0096     		str	r6, [sp]
 1081 0022 5346     		mov	r3, r10
 1082 0024 4A46     		mov	r2, r9
 1083 0026 4146     		mov	r1, r8
 1084 0028 3846     		mov	r0, r7
 1085 002a FFF7FEFF 		bl	SSD1306_DrawLine
 1086              	.LVL112:
 384:Core/Src/ssd1306.c **** 	SSD1306_DrawLine(x3, y3, x1, y1, color);
 1087              		.loc 1 384 2 view .LVU276
 1088 002e 0096     		str	r6, [sp]
 1089 0030 2B46     		mov	r3, r5
 1090 0032 2246     		mov	r2, r4
 1091 0034 5146     		mov	r1, r10
 1092 0036 4846     		mov	r0, r9
 1093 0038 FFF7FEFF 		bl	SSD1306_DrawLine
 1094              	.LVL113:
 385:Core/Src/ssd1306.c **** }
 1095              		.loc 1 385 1 is_stmt 0 view .LVU277
 1096 003c 02B0     		add	sp, sp, #8
 1097              		.cfi_def_cfa_offset 32
 1098              		@ sp needed
 1099 003e BDE8F087 		pop	{r4, r5, r6, r7, r8, r9, r10, pc}
 1100              		.loc 1 385 1 view .LVU278
 1101              		.cfi_endproc
 1102              	.LFE76:
 1104              		.section	.text.SSD1306_DrawFilledTriangle,"ax",%progbits
 1105              		.align	1
 1106              		.global	SSD1306_DrawFilledTriangle
 1107              		.syntax unified
 1108              		.thumb
 1109              		.thumb_func
 1111              	SSD1306_DrawFilledTriangle:
 1112              	.LVL114:
 1113              	.LFB77:
 386:Core/Src/ssd1306.c **** 
 387:Core/Src/ssd1306.c **** 
 388:Core/Src/ssd1306.c **** void SSD1306_DrawFilledTriangle(uint16_t x1, uint16_t y1, uint16_t x2, uint16_t y2, uint16_t x3, ui
 1114              		.loc 1 388 134 is_stmt 1 view -0
 1115              		.cfi_startproc
 1116              		@ args = 12, pretend = 0, frame = 32
 1117              		@ frame_needed = 0, uses_anonymous_args = 0
 1118              		.loc 1 388 134 is_stmt 0 view .LVU280
 1119 0000 2DE9F04F 		push	{r4, r5, r6, r7, r8, r9, r10, fp, lr}
 1120              		.cfi_def_cfa_offset 36
 1121              		.cfi_offset 4, -36
 1122              		.cfi_offset 5, -32
 1123              		.cfi_offset 6, -28
 1124              		.cfi_offset 7, -24
 1125              		.cfi_offset 8, -20
 1126              		.cfi_offset 9, -16
 1127              		.cfi_offset 10, -12
 1128              		.cfi_offset 11, -8
 1129              		.cfi_offset 14, -4
 1130 0004 8BB0     		sub	sp, sp, #44
 1131              		.cfi_def_cfa_offset 80
 1132 0006 BDF85040 		ldrh	r4, [sp, #80]
ARM GAS  C:\Users\kroko\AppData\Local\Temp\ccWVPZuZ.s 			page 29


 1133 000a 0594     		str	r4, [sp, #20]
 1134 000c BDF85440 		ldrh	r4, [sp, #84]
 1135 0010 0694     		str	r4, [sp, #24]
 1136 0012 9DF85840 		ldrb	r4, [sp, #88]	@ zero_extendqisi2
 1137 0016 0794     		str	r4, [sp, #28]
 389:Core/Src/ssd1306.c **** 	int16_t deltax = 0, deltay = 0, x = 0, y = 0, xinc1 = 0, xinc2 = 0, 
 1138              		.loc 1 389 2 is_stmt 1 view .LVU281
 1139              	.LVL115:
 390:Core/Src/ssd1306.c **** 	yinc1 = 0, yinc2 = 0, den = 0, num = 0, numadd = 0, numpixels = 0, 
 391:Core/Src/ssd1306.c **** 	curpixel = 0;
 392:Core/Src/ssd1306.c **** 	
 393:Core/Src/ssd1306.c **** 	deltax = ABS(x2 - x1);
 1140              		.loc 1 393 2 view .LVU282
 1141              		.loc 1 393 11 is_stmt 0 view .LVU283
 1142 0018 A2EB000A 		sub	r10, r2, r0
 1143 001c BAF1000F 		cmp	r10, #0
 1144 0020 B8BF     		it	lt
 1145 0022 CAF1000A 		rsblt	r10, r10, #0
 1146              		.loc 1 393 9 view .LVU284
 1147 0026 0FFA8AFA 		sxth	r10, r10
 1148              	.LVL116:
 394:Core/Src/ssd1306.c **** 	deltay = ABS(y2 - y1);
 1149              		.loc 1 394 2 is_stmt 1 view .LVU285
 1150              		.loc 1 394 11 is_stmt 0 view .LVU286
 1151 002a A3EB010C 		sub	ip, r3, r1
 1152 002e BCF1000F 		cmp	ip, #0
 1153 0032 B8BF     		it	lt
 1154 0034 CCF1000C 		rsblt	ip, ip, #0
 1155              		.loc 1 394 9 view .LVU287
 1156 0038 0FFA8CFB 		sxth	fp, ip
 1157              	.LVL117:
 395:Core/Src/ssd1306.c **** 	x = x1;
 1158              		.loc 1 395 2 is_stmt 1 view .LVU288
 1159              		.loc 1 395 4 is_stmt 0 view .LVU289
 1160 003c 04B2     		sxth	r4, r0
 1161              	.LVL118:
 396:Core/Src/ssd1306.c **** 	y = y1;
 1162              		.loc 1 396 2 is_stmt 1 view .LVU290
 1163              		.loc 1 396 4 is_stmt 0 view .LVU291
 1164 003e 0EB2     		sxth	r6, r1
 1165              	.LVL119:
 397:Core/Src/ssd1306.c **** 
 398:Core/Src/ssd1306.c **** 	if (x2 >= x1) {
 1166              		.loc 1 398 2 is_stmt 1 view .LVU292
 1167              		.loc 1 398 5 is_stmt 0 view .LVU293
 1168 0040 8242     		cmp	r2, r0
 1169 0042 13D3     		bcc	.L108
 399:Core/Src/ssd1306.c **** 		xinc1 = 1;
 1170              		.loc 1 399 9 view .LVU294
 1171 0044 0122     		movs	r2, #1
 1172              	.LVL120:
 1173              		.loc 1 399 9 view .LVU295
 1174 0046 0892     		str	r2, [sp, #32]
 1175              	.L101:
 1176              	.LVL121:
 400:Core/Src/ssd1306.c **** 		xinc2 = 1;
 401:Core/Src/ssd1306.c **** 	} else {
ARM GAS  C:\Users\kroko\AppData\Local\Temp\ccWVPZuZ.s 			page 30


 402:Core/Src/ssd1306.c **** 		xinc1 = -1;
 403:Core/Src/ssd1306.c **** 		xinc2 = -1;
 404:Core/Src/ssd1306.c **** 	}
 405:Core/Src/ssd1306.c **** 
 406:Core/Src/ssd1306.c **** 	if (y2 >= y1) {
 1177              		.loc 1 406 2 is_stmt 1 view .LVU296
 1178              		.loc 1 406 5 is_stmt 0 view .LVU297
 1179 0048 8B42     		cmp	r3, r1
 1180 004a 13D3     		bcc	.L109
 407:Core/Src/ssd1306.c **** 		yinc1 = 1;
 1181              		.loc 1 407 9 view .LVU298
 1182 004c 0123     		movs	r3, #1
 1183              	.LVL122:
 1184              		.loc 1 407 9 view .LVU299
 1185 004e 0993     		str	r3, [sp, #36]
 1186              	.L102:
 1187              	.LVL123:
 408:Core/Src/ssd1306.c **** 		yinc2 = 1;
 409:Core/Src/ssd1306.c **** 	} else {
 410:Core/Src/ssd1306.c **** 		yinc1 = -1;
 411:Core/Src/ssd1306.c **** 		yinc2 = -1;
 412:Core/Src/ssd1306.c **** 	}
 413:Core/Src/ssd1306.c **** 
 414:Core/Src/ssd1306.c **** 	if (deltax >= deltay){
 1188              		.loc 1 414 2 is_stmt 1 view .LVU300
 1189              		.loc 1 414 5 is_stmt 0 view .LVU301
 1190 0050 DA45     		cmp	r10, fp
 1191 0052 13DB     		blt	.L103
 415:Core/Src/ssd1306.c **** 		xinc1 = 0;
 1192              		.loc 1 415 3 is_stmt 1 view .LVU302
 1193              	.LVL124:
 416:Core/Src/ssd1306.c **** 		yinc2 = 0;
 1194              		.loc 1 416 3 view .LVU303
 417:Core/Src/ssd1306.c **** 		den = deltax;
 1195              		.loc 1 417 3 view .LVU304
 418:Core/Src/ssd1306.c **** 		num = deltax / 2;
 1196              		.loc 1 418 3 view .LVU305
 1197              		.loc 1 418 7 is_stmt 0 view .LVU306
 1198 0054 0AEBDA78 		add	r8, r10, r10, lsr #31
 1199 0058 48F34F08 		sbfx	r8, r8, #1, #16
 1200              	.LVL125:
 419:Core/Src/ssd1306.c **** 		numadd = deltay;
 1201              		.loc 1 419 3 is_stmt 1 view .LVU307
 420:Core/Src/ssd1306.c **** 		numpixels = deltax;
 1202              		.loc 1 420 3 view .LVU308
 1203              		.loc 1 420 3 is_stmt 0 view .LVU309
 1204 005c 089B     		ldr	r3, [sp, #32]
 1205 005e 0393     		str	r3, [sp, #12]
 416:Core/Src/ssd1306.c **** 		den = deltax;
 1206              		.loc 1 416 9 view .LVU310
 1207 0060 0023     		movs	r3, #0
 1208 0062 0893     		str	r3, [sp, #32]
 1209              	.LVL126:
 415:Core/Src/ssd1306.c **** 		yinc2 = 0;
 1210              		.loc 1 415 9 view .LVU311
 1211 0064 0493     		str	r3, [sp, #16]
 1212              	.LVL127:
ARM GAS  C:\Users\kroko\AppData\Local\Temp\ccWVPZuZ.s 			page 31


 1213              	.L104:
 421:Core/Src/ssd1306.c **** 	} else {
 422:Core/Src/ssd1306.c **** 		xinc2 = 0;
 423:Core/Src/ssd1306.c **** 		yinc1 = 0;
 424:Core/Src/ssd1306.c **** 		den = deltay;
 425:Core/Src/ssd1306.c **** 		num = deltay / 2;
 426:Core/Src/ssd1306.c **** 		numadd = deltax;
 427:Core/Src/ssd1306.c **** 		numpixels = deltay;
 428:Core/Src/ssd1306.c **** 	}
 429:Core/Src/ssd1306.c **** 
 430:Core/Src/ssd1306.c **** 	for (curpixel = 0; curpixel <= numpixels; curpixel++) {
 1214              		.loc 1 430 2 is_stmt 1 view .LVU312
 1215              		.loc 1 430 16 is_stmt 0 view .LVU313
 1216 0066 4FF00009 		mov	r9, #0
 1217              		.loc 1 430 2 view .LVU314
 1218 006a 1EE0     		b	.L105
 1219              	.LVL128:
 1220              	.L108:
 402:Core/Src/ssd1306.c **** 		xinc2 = -1;
 1221              		.loc 1 402 9 view .LVU315
 1222 006c 4FF0FF32 		mov	r2, #-1
 1223              	.LVL129:
 402:Core/Src/ssd1306.c **** 		xinc2 = -1;
 1224              		.loc 1 402 9 view .LVU316
 1225 0070 0892     		str	r2, [sp, #32]
 1226 0072 E9E7     		b	.L101
 1227              	.LVL130:
 1228              	.L109:
 410:Core/Src/ssd1306.c **** 		yinc2 = -1;
 1229              		.loc 1 410 9 view .LVU317
 1230 0074 4FF0FF33 		mov	r3, #-1
 1231              	.LVL131:
 410:Core/Src/ssd1306.c **** 		yinc2 = -1;
 1232              		.loc 1 410 9 view .LVU318
 1233 0078 0993     		str	r3, [sp, #36]
 1234 007a E9E7     		b	.L102
 1235              	.LVL132:
 1236              	.L103:
 422:Core/Src/ssd1306.c **** 		yinc1 = 0;
 1237              		.loc 1 422 3 is_stmt 1 view .LVU319
 423:Core/Src/ssd1306.c **** 		den = deltay;
 1238              		.loc 1 423 3 view .LVU320
 424:Core/Src/ssd1306.c **** 		num = deltay / 2;
 1239              		.loc 1 424 3 view .LVU321
 425:Core/Src/ssd1306.c **** 		numadd = deltax;
 1240              		.loc 1 425 3 view .LVU322
 425:Core/Src/ssd1306.c **** 		numadd = deltax;
 1241              		.loc 1 425 7 is_stmt 0 view .LVU323
 1242 007c 0BEBDB78 		add	r8, fp, fp, lsr #31
 1243 0080 48F34F08 		sbfx	r8, r8, #1, #16
 1244              	.LVL133:
 426:Core/Src/ssd1306.c **** 		numpixels = deltay;
 1245              		.loc 1 426 3 is_stmt 1 view .LVU324
 427:Core/Src/ssd1306.c **** 	}
 1246              		.loc 1 427 3 view .LVU325
 425:Core/Src/ssd1306.c **** 		numadd = deltax;
 1247              		.loc 1 425 7 is_stmt 0 view .LVU326
ARM GAS  C:\Users\kroko\AppData\Local\Temp\ccWVPZuZ.s 			page 32


 1248 0084 5346     		mov	r3, r10
 424:Core/Src/ssd1306.c **** 		num = deltay / 2;
 1249              		.loc 1 424 7 view .LVU327
 1250 0086 DA46     		mov	r10, fp
 1251              	.LVL134:
 426:Core/Src/ssd1306.c **** 		numpixels = deltay;
 1252              		.loc 1 426 10 view .LVU328
 1253 0088 9B46     		mov	fp, r3
 1254              	.LVL135:
 425:Core/Src/ssd1306.c **** 		numadd = deltax;
 1255              		.loc 1 425 7 view .LVU329
 1256 008a 099B     		ldr	r3, [sp, #36]
 1257              	.LVL136:
 425:Core/Src/ssd1306.c **** 		numadd = deltax;
 1258              		.loc 1 425 7 view .LVU330
 1259 008c 0493     		str	r3, [sp, #16]
 423:Core/Src/ssd1306.c **** 		den = deltay;
 1260              		.loc 1 423 9 view .LVU331
 1261 008e 0023     		movs	r3, #0
 1262 0090 0993     		str	r3, [sp, #36]
 1263              	.LVL137:
 422:Core/Src/ssd1306.c **** 		yinc1 = 0;
 1264              		.loc 1 422 9 view .LVU332
 1265 0092 0393     		str	r3, [sp, #12]
 1266 0094 E7E7     		b	.L104
 1267              	.LVL138:
 1268              	.L106:
 431:Core/Src/ssd1306.c **** 		SSD1306_DrawLine(x, y, x3, y3, color);
 432:Core/Src/ssd1306.c **** 
 433:Core/Src/ssd1306.c **** 		num += numadd;
 434:Core/Src/ssd1306.c **** 		if (num >= den) {
 435:Core/Src/ssd1306.c **** 			num -= den;
 436:Core/Src/ssd1306.c **** 			x += xinc1;
 437:Core/Src/ssd1306.c **** 			y += yinc1;
 438:Core/Src/ssd1306.c **** 		}
 439:Core/Src/ssd1306.c **** 		x += xinc2;
 1269              		.loc 1 439 3 is_stmt 1 view .LVU333
 1270              		.loc 1 439 5 is_stmt 0 view .LVU334
 1271 0096 039B     		ldr	r3, [sp, #12]
 1272 0098 1C44     		add	r4, r4, r3
 1273              	.LVL139:
 1274              		.loc 1 439 5 view .LVU335
 1275 009a 24B2     		sxth	r4, r4
 1276              	.LVL140:
 440:Core/Src/ssd1306.c **** 		y += yinc2;
 1277              		.loc 1 440 3 is_stmt 1 view .LVU336
 1278              		.loc 1 440 5 is_stmt 0 view .LVU337
 1279 009c 049B     		ldr	r3, [sp, #16]
 1280 009e 1E44     		add	r6, r6, r3
 1281              	.LVL141:
 1282              		.loc 1 440 5 view .LVU338
 1283 00a0 36B2     		sxth	r6, r6
 1284              	.LVL142:
 430:Core/Src/ssd1306.c **** 		SSD1306_DrawLine(x, y, x3, y3, color);
 1285              		.loc 1 430 52 is_stmt 1 discriminator 2 view .LVU339
 1286 00a2 09F10109 		add	r9, r9, #1
 1287              	.LVL143:
ARM GAS  C:\Users\kroko\AppData\Local\Temp\ccWVPZuZ.s 			page 33


 430:Core/Src/ssd1306.c **** 		SSD1306_DrawLine(x, y, x3, y3, color);
 1288              		.loc 1 430 52 is_stmt 0 discriminator 2 view .LVU340
 1289 00a6 0FFA89F9 		sxth	r9, r9
 1290              	.LVL144:
 1291              	.L105:
 430:Core/Src/ssd1306.c **** 		SSD1306_DrawLine(x, y, x3, y3, color);
 1292              		.loc 1 430 30 is_stmt 1 discriminator 1 view .LVU341
 1293 00aa CA45     		cmp	r10, r9
 1294 00ac 1BDB     		blt	.L111
 431:Core/Src/ssd1306.c **** 		SSD1306_DrawLine(x, y, x3, y3, color);
 1295              		.loc 1 431 3 view .LVU342
 1296 00ae A7B2     		uxth	r7, r4
 1297 00b0 B5B2     		uxth	r5, r6
 1298 00b2 079B     		ldr	r3, [sp, #28]
 1299 00b4 0093     		str	r3, [sp]
 1300 00b6 069B     		ldr	r3, [sp, #24]
 1301 00b8 059A     		ldr	r2, [sp, #20]
 1302 00ba 2946     		mov	r1, r5
 1303 00bc 3846     		mov	r0, r7
 1304 00be FFF7FEFF 		bl	SSD1306_DrawLine
 1305              	.LVL145:
 433:Core/Src/ssd1306.c **** 		if (num >= den) {
 1306              		.loc 1 433 3 view .LVU343
 433:Core/Src/ssd1306.c **** 		if (num >= den) {
 1307              		.loc 1 433 7 is_stmt 0 view .LVU344
 1308 00c2 D844     		add	r8, r8, fp
 1309              	.LVL146:
 433:Core/Src/ssd1306.c **** 		if (num >= den) {
 1310              		.loc 1 433 7 view .LVU345
 1311 00c4 1FFA88F3 		uxth	r3, r8
 1312 00c8 0FFA88F8 		sxth	r8, r8
 1313              	.LVL147:
 434:Core/Src/ssd1306.c **** 			num -= den;
 1314              		.loc 1 434 3 is_stmt 1 view .LVU346
 434:Core/Src/ssd1306.c **** 			num -= den;
 1315              		.loc 1 434 6 is_stmt 0 view .LVU347
 1316 00cc C245     		cmp	r10, r8
 1317 00ce E2DC     		bgt	.L106
 435:Core/Src/ssd1306.c **** 			x += xinc1;
 1318              		.loc 1 435 4 is_stmt 1 view .LVU348
 435:Core/Src/ssd1306.c **** 			x += xinc1;
 1319              		.loc 1 435 8 is_stmt 0 view .LVU349
 1320 00d0 A3EB0A03 		sub	r3, r3, r10
 1321 00d4 0FFA83F8 		sxth	r8, r3
 1322              	.LVL148:
 436:Core/Src/ssd1306.c **** 			y += yinc1;
 1323              		.loc 1 436 4 is_stmt 1 view .LVU350
 436:Core/Src/ssd1306.c **** 			y += yinc1;
 1324              		.loc 1 436 6 is_stmt 0 view .LVU351
 1325 00d8 089B     		ldr	r3, [sp, #32]
 1326 00da 1F44     		add	r7, r7, r3
 1327 00dc 3CB2     		sxth	r4, r7
 1328              	.LVL149:
 437:Core/Src/ssd1306.c **** 		}
 1329              		.loc 1 437 4 is_stmt 1 view .LVU352
 437:Core/Src/ssd1306.c **** 		}
 1330              		.loc 1 437 6 is_stmt 0 view .LVU353
ARM GAS  C:\Users\kroko\AppData\Local\Temp\ccWVPZuZ.s 			page 34


 1331 00de 099B     		ldr	r3, [sp, #36]
 1332 00e0 1D44     		add	r5, r5, r3
 1333 00e2 2EB2     		sxth	r6, r5
 1334              	.LVL150:
 437:Core/Src/ssd1306.c **** 		}
 1335              		.loc 1 437 6 view .LVU354
 1336 00e4 D7E7     		b	.L106
 1337              	.L111:
 441:Core/Src/ssd1306.c **** 	}
 442:Core/Src/ssd1306.c **** }
 1338              		.loc 1 442 1 view .LVU355
 1339 00e6 0BB0     		add	sp, sp, #44
 1340              		.cfi_def_cfa_offset 36
 1341              		@ sp needed
 1342 00e8 BDE8F08F 		pop	{r4, r5, r6, r7, r8, r9, r10, fp, pc}
 1343              		.loc 1 442 1 view .LVU356
 1344              		.cfi_endproc
 1345              	.LFE77:
 1347              		.section	.text.SSD1306_DrawCircle,"ax",%progbits
 1348              		.align	1
 1349              		.global	SSD1306_DrawCircle
 1350              		.syntax unified
 1351              		.thumb
 1352              		.thumb_func
 1354              	SSD1306_DrawCircle:
 1355              	.LVL151:
 1356              	.LFB78:
 443:Core/Src/ssd1306.c **** 
 444:Core/Src/ssd1306.c **** void SSD1306_DrawCircle(int16_t x0, int16_t y0, int16_t r, SSD1306_COLOR_t c) {
 1357              		.loc 1 444 79 is_stmt 1 view -0
 1358              		.cfi_startproc
 1359              		@ args = 0, pretend = 0, frame = 24
 1360              		@ frame_needed = 0, uses_anonymous_args = 0
 1361              		.loc 1 444 79 is_stmt 0 view .LVU358
 1362 0000 2DE9F04F 		push	{r4, r5, r6, r7, r8, r9, r10, fp, lr}
 1363              		.cfi_def_cfa_offset 36
 1364              		.cfi_offset 4, -36
 1365              		.cfi_offset 5, -32
 1366              		.cfi_offset 6, -28
 1367              		.cfi_offset 7, -24
 1368              		.cfi_offset 8, -20
 1369              		.cfi_offset 9, -16
 1370              		.cfi_offset 10, -12
 1371              		.cfi_offset 11, -8
 1372              		.cfi_offset 14, -4
 1373 0004 87B0     		sub	sp, sp, #28
 1374              		.cfi_def_cfa_offset 64
 1375 0006 0192     		str	r2, [sp, #4]
 1376 0008 1E46     		mov	r6, r3
 445:Core/Src/ssd1306.c **** 	int16_t f = 1 - r;
 1377              		.loc 1 445 2 is_stmt 1 view .LVU359
 1378              		.loc 1 445 16 is_stmt 0 view .LVU360
 1379 000a 94B2     		uxth	r4, r2
 1380 000c C4F10103 		rsb	r3, r4, #1
 1381              	.LVL152:
 1382              		.loc 1 445 10 view .LVU361
 1383 0010 0FFA83F9 		sxth	r9, r3
ARM GAS  C:\Users\kroko\AppData\Local\Temp\ccWVPZuZ.s 			page 35


 1384              	.LVL153:
 446:Core/Src/ssd1306.c **** 	int16_t ddF_x = 1;
 1385              		.loc 1 446 2 is_stmt 1 view .LVU362
 447:Core/Src/ssd1306.c **** 	int16_t ddF_y = -2 * r;
 1386              		.loc 1 447 2 view .LVU363
 1387              		.loc 1 447 21 is_stmt 0 view .LVU364
 1388 0014 C4EBC433 		rsb	r3, r4, r4, lsl #15
 1389 0018 5B00     		lsls	r3, r3, #1
 1390              		.loc 1 447 10 view .LVU365
 1391 001a 1BB2     		sxth	r3, r3
 1392 001c 0593     		str	r3, [sp, #20]
 1393              	.LVL154:
 448:Core/Src/ssd1306.c **** 	int16_t x = 0;
 1394              		.loc 1 448 2 is_stmt 1 view .LVU366
 449:Core/Src/ssd1306.c **** 	int16_t y = r;
 1395              		.loc 1 449 2 view .LVU367
 450:Core/Src/ssd1306.c **** 
 451:Core/Src/ssd1306.c ****     SSD1306_DrawPixel(x0, y0 + r, c);
 1396              		.loc 1 451 5 view .LVU368
 1397 001e 1FFA80FB 		uxth	fp, r0
 1398 0022 1FFA81FA 		uxth	r10, r1
 1399 0026 04EB0A01 		add	r1, r4, r10
 1400              	.LVL155:
 1401              		.loc 1 451 5 is_stmt 0 view .LVU369
 1402 002a 3246     		mov	r2, r6
 1403              	.LVL156:
 1404              		.loc 1 451 5 view .LVU370
 1405 002c 89B2     		uxth	r1, r1
 1406 002e 5846     		mov	r0, fp
 1407              		.loc 1 451 5 view .LVU371
 1408 0030 FFF7FEFF 		bl	SSD1306_DrawPixel
 1409              	.LVL157:
 452:Core/Src/ssd1306.c ****     SSD1306_DrawPixel(x0, y0 - r, c);
 1410              		.loc 1 452 5 is_stmt 1 view .LVU372
 1411 0034 AAEB0401 		sub	r1, r10, r4
 1412 0038 3246     		mov	r2, r6
 1413 003a 89B2     		uxth	r1, r1
 1414 003c 5846     		mov	r0, fp
 1415 003e FFF7FEFF 		bl	SSD1306_DrawPixel
 1416              	.LVL158:
 453:Core/Src/ssd1306.c ****     SSD1306_DrawPixel(x0 + r, y0, c);
 1417              		.loc 1 453 5 view .LVU373
 1418 0042 04EB0B00 		add	r0, r4, fp
 1419 0046 3246     		mov	r2, r6
 1420 0048 5146     		mov	r1, r10
 1421 004a 80B2     		uxth	r0, r0
 1422 004c FFF7FEFF 		bl	SSD1306_DrawPixel
 1423              	.LVL159:
 454:Core/Src/ssd1306.c ****     SSD1306_DrawPixel(x0 - r, y0, c);
 1424              		.loc 1 454 5 view .LVU374
 1425 0050 ABEB0400 		sub	r0, fp, r4
 1426 0054 3246     		mov	r2, r6
 1427 0056 5146     		mov	r1, r10
 1428 0058 80B2     		uxth	r0, r0
 1429 005a FFF7FEFF 		bl	SSD1306_DrawPixel
 1430              	.LVL160:
 455:Core/Src/ssd1306.c **** 
ARM GAS  C:\Users\kroko\AppData\Local\Temp\ccWVPZuZ.s 			page 36


 456:Core/Src/ssd1306.c ****     while (x < y) {
 1431              		.loc 1 456 5 view .LVU375
 448:Core/Src/ssd1306.c **** 	int16_t y = r;
 1432              		.loc 1 448 10 is_stmt 0 view .LVU376
 1433 005e 0023     		movs	r3, #0
 1434 0060 0293     		str	r3, [sp, #8]
 446:Core/Src/ssd1306.c **** 	int16_t ddF_y = -2 * r;
 1435              		.loc 1 446 10 view .LVU377
 1436 0062 0123     		movs	r3, #1
 1437 0064 0393     		str	r3, [sp, #12]
 1438              		.loc 1 456 11 view .LVU378
 1439 0066 5EE0     		b	.L113
 1440              	.LVL161:
 1441              	.L118:
 457:Core/Src/ssd1306.c ****         if (f >= 0) {
 458:Core/Src/ssd1306.c ****             y--;
 1442              		.loc 1 458 13 is_stmt 1 view .LVU379
 1443              		.loc 1 458 14 is_stmt 0 view .LVU380
 1444 0068 019B     		ldr	r3, [sp, #4]
 1445 006a 013B     		subs	r3, r3, #1
 1446 006c 1BB2     		sxth	r3, r3
 1447 006e 0193     		str	r3, [sp, #4]
 1448              	.LVL162:
 459:Core/Src/ssd1306.c ****             ddF_y += 2;
 1449              		.loc 1 459 13 is_stmt 1 view .LVU381
 1450              		.loc 1 459 19 is_stmt 0 view .LVU382
 1451 0070 059A     		ldr	r2, [sp, #20]
 1452 0072 0232     		adds	r2, r2, #2
 1453 0074 93B2     		uxth	r3, r2
 1454 0076 12B2     		sxth	r2, r2
 1455 0078 0592     		str	r2, [sp, #20]
 1456              	.LVL163:
 460:Core/Src/ssd1306.c ****             f += ddF_y;
 1457              		.loc 1 460 13 is_stmt 1 view .LVU383
 1458              		.loc 1 460 15 is_stmt 0 view .LVU384
 1459 007a 4B44     		add	r3, r3, r9
 1460 007c 0FFA83F9 		sxth	r9, r3
 1461              	.LVL164:
 1462              	.L114:
 461:Core/Src/ssd1306.c ****         }
 462:Core/Src/ssd1306.c ****         x++;
 1463              		.loc 1 462 9 is_stmt 1 view .LVU385
 1464              		.loc 1 462 10 is_stmt 0 view .LVU386
 1465 0080 029B     		ldr	r3, [sp, #8]
 1466 0082 0133     		adds	r3, r3, #1
 1467 0084 9DB2     		uxth	r5, r3
 1468 0086 1BB2     		sxth	r3, r3
 1469 0088 0293     		str	r3, [sp, #8]
 1470              	.LVL165:
 463:Core/Src/ssd1306.c ****         ddF_x += 2;
 1471              		.loc 1 463 9 is_stmt 1 view .LVU387
 1472              		.loc 1 463 15 is_stmt 0 view .LVU388
 1473 008a 039A     		ldr	r2, [sp, #12]
 1474 008c 0232     		adds	r2, r2, #2
 1475 008e 93B2     		uxth	r3, r2
 1476 0090 12B2     		sxth	r2, r2
 1477 0092 0392     		str	r2, [sp, #12]
ARM GAS  C:\Users\kroko\AppData\Local\Temp\ccWVPZuZ.s 			page 37


 1478              	.LVL166:
 464:Core/Src/ssd1306.c ****         f += ddF_x;
 1479              		.loc 1 464 9 is_stmt 1 view .LVU389
 1480              		.loc 1 464 11 is_stmt 0 view .LVU390
 1481 0094 4B44     		add	r3, r3, r9
 1482 0096 0FFA83F9 		sxth	r9, r3
 1483              	.LVL167:
 465:Core/Src/ssd1306.c **** 
 466:Core/Src/ssd1306.c ****         SSD1306_DrawPixel(x0 + x, y0 + y, c);
 1484              		.loc 1 466 9 is_stmt 1 view .LVU391
 1485 009a 0BEB0503 		add	r3, fp, r5
 1486 009e 9BB2     		uxth	r3, r3
 1487 00a0 BDF80440 		ldrh	r4, [sp, #4]
 1488 00a4 0AEB0408 		add	r8, r10, r4
 1489 00a8 1FFA88F8 		uxth	r8, r8
 1490 00ac 3246     		mov	r2, r6
 1491 00ae 4146     		mov	r1, r8
 1492 00b0 0493     		str	r3, [sp, #16]
 1493 00b2 1846     		mov	r0, r3
 1494 00b4 FFF7FEFF 		bl	SSD1306_DrawPixel
 1495              	.LVL168:
 467:Core/Src/ssd1306.c ****         SSD1306_DrawPixel(x0 - x, y0 + y, c);
 1496              		.loc 1 467 9 view .LVU392
 1497 00b8 ABEB0507 		sub	r7, fp, r5
 1498 00bc BFB2     		uxth	r7, r7
 1499 00be 3246     		mov	r2, r6
 1500 00c0 4146     		mov	r1, r8
 1501 00c2 3846     		mov	r0, r7
 1502 00c4 FFF7FEFF 		bl	SSD1306_DrawPixel
 1503              	.LVL169:
 468:Core/Src/ssd1306.c ****         SSD1306_DrawPixel(x0 + x, y0 - y, c);
 1504              		.loc 1 468 9 view .LVU393
 1505 00c8 AAEB0408 		sub	r8, r10, r4
 1506 00cc 1FFA88F8 		uxth	r8, r8
 1507 00d0 3246     		mov	r2, r6
 1508 00d2 4146     		mov	r1, r8
 1509 00d4 0498     		ldr	r0, [sp, #16]
 1510 00d6 FFF7FEFF 		bl	SSD1306_DrawPixel
 1511              	.LVL170:
 469:Core/Src/ssd1306.c ****         SSD1306_DrawPixel(x0 - x, y0 - y, c);
 1512              		.loc 1 469 9 view .LVU394
 1513 00da 3246     		mov	r2, r6
 1514 00dc 4146     		mov	r1, r8
 1515 00de 3846     		mov	r0, r7
 1516 00e0 FFF7FEFF 		bl	SSD1306_DrawPixel
 1517              	.LVL171:
 470:Core/Src/ssd1306.c **** 
 471:Core/Src/ssd1306.c ****         SSD1306_DrawPixel(x0 + y, y0 + x, c);
 1518              		.loc 1 471 9 view .LVU395
 1519 00e4 0BEB0407 		add	r7, fp, r4
 1520 00e8 BFB2     		uxth	r7, r7
 1521 00ea 0AEB0508 		add	r8, r10, r5
 1522 00ee 1FFA88F8 		uxth	r8, r8
 1523 00f2 3246     		mov	r2, r6
 1524 00f4 4146     		mov	r1, r8
 1525 00f6 3846     		mov	r0, r7
 1526 00f8 FFF7FEFF 		bl	SSD1306_DrawPixel
ARM GAS  C:\Users\kroko\AppData\Local\Temp\ccWVPZuZ.s 			page 38


 1527              	.LVL172:
 472:Core/Src/ssd1306.c ****         SSD1306_DrawPixel(x0 - y, y0 + x, c);
 1528              		.loc 1 472 9 view .LVU396
 1529 00fc ABEB0404 		sub	r4, fp, r4
 1530 0100 A4B2     		uxth	r4, r4
 1531 0102 3246     		mov	r2, r6
 1532 0104 4146     		mov	r1, r8
 1533 0106 2046     		mov	r0, r4
 1534 0108 FFF7FEFF 		bl	SSD1306_DrawPixel
 1535              	.LVL173:
 473:Core/Src/ssd1306.c ****         SSD1306_DrawPixel(x0 + y, y0 - x, c);
 1536              		.loc 1 473 9 view .LVU397
 1537 010c AAEB0505 		sub	r5, r10, r5
 1538 0110 ADB2     		uxth	r5, r5
 1539 0112 3246     		mov	r2, r6
 1540 0114 2946     		mov	r1, r5
 1541 0116 3846     		mov	r0, r7
 1542 0118 FFF7FEFF 		bl	SSD1306_DrawPixel
 1543              	.LVL174:
 474:Core/Src/ssd1306.c ****         SSD1306_DrawPixel(x0 - y, y0 - x, c);
 1544              		.loc 1 474 9 view .LVU398
 1545 011c 3246     		mov	r2, r6
 1546 011e 2946     		mov	r1, r5
 1547 0120 2046     		mov	r0, r4
 1548 0122 FFF7FEFF 		bl	SSD1306_DrawPixel
 1549              	.LVL175:
 1550              	.L113:
 456:Core/Src/ssd1306.c ****         if (f >= 0) {
 1551              		.loc 1 456 14 view .LVU399
 1552 0126 029B     		ldr	r3, [sp, #8]
 1553 0128 019A     		ldr	r2, [sp, #4]
 1554 012a 9342     		cmp	r3, r2
 1555 012c 03DA     		bge	.L117
 457:Core/Src/ssd1306.c ****             y--;
 1556              		.loc 1 457 9 view .LVU400
 457:Core/Src/ssd1306.c ****             y--;
 1557              		.loc 1 457 12 is_stmt 0 view .LVU401
 1558 012e B9F1000F 		cmp	r9, #0
 1559 0132 99DA     		bge	.L118
 1560 0134 A4E7     		b	.L114
 1561              	.L117:
 475:Core/Src/ssd1306.c ****     }
 476:Core/Src/ssd1306.c **** }
 1562              		.loc 1 476 1 view .LVU402
 1563 0136 07B0     		add	sp, sp, #28
 1564              		.cfi_def_cfa_offset 36
 1565              		@ sp needed
 1566 0138 BDE8F08F 		pop	{r4, r5, r6, r7, r8, r9, r10, fp, pc}
 1567              		.loc 1 476 1 view .LVU403
 1568              		.cfi_endproc
 1569              	.LFE78:
 1571              		.section	.text.SSD1306_DrawFilledCircle,"ax",%progbits
 1572              		.align	1
 1573              		.global	SSD1306_DrawFilledCircle
 1574              		.syntax unified
 1575              		.thumb
 1576              		.thumb_func
ARM GAS  C:\Users\kroko\AppData\Local\Temp\ccWVPZuZ.s 			page 39


 1578              	SSD1306_DrawFilledCircle:
 1579              	.LVL176:
 1580              	.LFB79:
 477:Core/Src/ssd1306.c **** 
 478:Core/Src/ssd1306.c **** void SSD1306_DrawFilledCircle(int16_t x0, int16_t y0, int16_t r, SSD1306_COLOR_t c) {
 1581              		.loc 1 478 85 is_stmt 1 view -0
 1582              		.cfi_startproc
 1583              		@ args = 0, pretend = 0, frame = 16
 1584              		@ frame_needed = 0, uses_anonymous_args = 0
 1585              		.loc 1 478 85 is_stmt 0 view .LVU405
 1586 0000 2DE9F04F 		push	{r4, r5, r6, r7, r8, r9, r10, fp, lr}
 1587              		.cfi_def_cfa_offset 36
 1588              		.cfi_offset 4, -36
 1589              		.cfi_offset 5, -32
 1590              		.cfi_offset 6, -28
 1591              		.cfi_offset 7, -24
 1592              		.cfi_offset 8, -20
 1593              		.cfi_offset 9, -16
 1594              		.cfi_offset 10, -12
 1595              		.cfi_offset 11, -8
 1596              		.cfi_offset 14, -4
 1597 0004 87B0     		sub	sp, sp, #28
 1598              		.cfi_def_cfa_offset 64
 1599 0006 0292     		str	r2, [sp, #8]
 1600 0008 9A46     		mov	r10, r3
 479:Core/Src/ssd1306.c **** 	int16_t f = 1 - r;
 1601              		.loc 1 479 2 is_stmt 1 view .LVU406
 1602              		.loc 1 479 16 is_stmt 0 view .LVU407
 1603 000a 95B2     		uxth	r5, r2
 1604 000c C5F10104 		rsb	r4, r5, #1
 1605              		.loc 1 479 10 view .LVU408
 1606 0010 24B2     		sxth	r4, r4
 1607              	.LVL177:
 480:Core/Src/ssd1306.c **** 	int16_t ddF_x = 1;
 1608              		.loc 1 480 2 is_stmt 1 view .LVU409
 481:Core/Src/ssd1306.c **** 	int16_t ddF_y = -2 * r;
 1609              		.loc 1 481 2 view .LVU410
 1610              		.loc 1 481 21 is_stmt 0 view .LVU411
 1611 0012 C5EBC533 		rsb	r3, r5, r5, lsl #15
 1612              	.LVL178:
 1613              		.loc 1 481 21 view .LVU412
 1614 0016 5B00     		lsls	r3, r3, #1
 1615              		.loc 1 481 10 view .LVU413
 1616 0018 1BB2     		sxth	r3, r3
 1617 001a 0593     		str	r3, [sp, #20]
 1618              	.LVL179:
 482:Core/Src/ssd1306.c **** 	int16_t x = 0;
 1619              		.loc 1 482 2 is_stmt 1 view .LVU414
 483:Core/Src/ssd1306.c **** 	int16_t y = r;
 1620              		.loc 1 483 2 view .LVU415
 484:Core/Src/ssd1306.c **** 
 485:Core/Src/ssd1306.c ****     SSD1306_DrawPixel(x0, y0 + r, c);
 1621              		.loc 1 485 5 view .LVU416
 1622 001c 1FFA80FB 		uxth	fp, r0
 1623 0020 8FB2     		uxth	r7, r1
 1624 0022 E919     		adds	r1, r5, r7
 1625              	.LVL180:
ARM GAS  C:\Users\kroko\AppData\Local\Temp\ccWVPZuZ.s 			page 40


 1626              		.loc 1 485 5 is_stmt 0 view .LVU417
 1627 0024 5246     		mov	r2, r10
 1628              	.LVL181:
 1629              		.loc 1 485 5 view .LVU418
 1630 0026 89B2     		uxth	r1, r1
 1631 0028 5846     		mov	r0, fp
 1632              		.loc 1 485 5 view .LVU419
 1633 002a FFF7FEFF 		bl	SSD1306_DrawPixel
 1634              	.LVL182:
 486:Core/Src/ssd1306.c ****     SSD1306_DrawPixel(x0, y0 - r, c);
 1635              		.loc 1 486 5 is_stmt 1 view .LVU420
 1636 002e 791B     		subs	r1, r7, r5
 1637 0030 5246     		mov	r2, r10
 1638 0032 89B2     		uxth	r1, r1
 1639 0034 5846     		mov	r0, fp
 1640 0036 FFF7FEFF 		bl	SSD1306_DrawPixel
 1641              	.LVL183:
 487:Core/Src/ssd1306.c ****     SSD1306_DrawPixel(x0 + r, y0, c);
 1642              		.loc 1 487 5 view .LVU421
 1643 003a 05EB0B06 		add	r6, r5, fp
 1644 003e B6B2     		uxth	r6, r6
 1645 0040 5246     		mov	r2, r10
 1646 0042 3946     		mov	r1, r7
 1647 0044 3046     		mov	r0, r6
 1648 0046 FFF7FEFF 		bl	SSD1306_DrawPixel
 1649              	.LVL184:
 488:Core/Src/ssd1306.c ****     SSD1306_DrawPixel(x0 - r, y0, c);
 1650              		.loc 1 488 5 view .LVU422
 1651 004a ABEB0505 		sub	r5, fp, r5
 1652              	.LVL185:
 1653              		.loc 1 488 5 is_stmt 0 view .LVU423
 1654 004e ADB2     		uxth	r5, r5
 1655 0050 5246     		mov	r2, r10
 1656 0052 3946     		mov	r1, r7
 1657 0054 2846     		mov	r0, r5
 1658 0056 FFF7FEFF 		bl	SSD1306_DrawPixel
 1659              	.LVL186:
 489:Core/Src/ssd1306.c ****     SSD1306_DrawLine(x0 - r, y0, x0 + r, y0, c);
 1660              		.loc 1 489 5 is_stmt 1 view .LVU424
 1661 005a CDF800A0 		str	r10, [sp]
 1662 005e 3B46     		mov	r3, r7
 1663 0060 3246     		mov	r2, r6
 1664 0062 3946     		mov	r1, r7
 1665 0064 2846     		mov	r0, r5
 1666 0066 FFF7FEFF 		bl	SSD1306_DrawLine
 1667              	.LVL187:
 490:Core/Src/ssd1306.c **** 
 491:Core/Src/ssd1306.c ****     while (x < y) {
 1668              		.loc 1 491 5 view .LVU425
 482:Core/Src/ssd1306.c **** 	int16_t y = r;
 1669              		.loc 1 482 10 is_stmt 0 view .LVU426
 1670 006a 0023     		movs	r3, #0
 1671 006c 0393     		str	r3, [sp, #12]
 480:Core/Src/ssd1306.c **** 	int16_t ddF_y = -2 * r;
 1672              		.loc 1 480 10 view .LVU427
 1673 006e 0123     		movs	r3, #1
 1674 0070 0493     		str	r3, [sp, #16]
ARM GAS  C:\Users\kroko\AppData\Local\Temp\ccWVPZuZ.s 			page 41


 1675              		.loc 1 491 11 view .LVU428
 1676 0072 4BE0     		b	.L120
 1677              	.LVL188:
 1678              	.L125:
 492:Core/Src/ssd1306.c ****         if (f >= 0) {
 493:Core/Src/ssd1306.c ****             y--;
 1679              		.loc 1 493 13 is_stmt 1 view .LVU429
 1680              		.loc 1 493 14 is_stmt 0 view .LVU430
 1681 0074 029B     		ldr	r3, [sp, #8]
 1682 0076 013B     		subs	r3, r3, #1
 1683 0078 1BB2     		sxth	r3, r3
 1684 007a 0293     		str	r3, [sp, #8]
 1685              	.LVL189:
 494:Core/Src/ssd1306.c ****             ddF_y += 2;
 1686              		.loc 1 494 13 is_stmt 1 view .LVU431
 1687              		.loc 1 494 19 is_stmt 0 view .LVU432
 1688 007c 059A     		ldr	r2, [sp, #20]
 1689 007e 0232     		adds	r2, r2, #2
 1690 0080 93B2     		uxth	r3, r2
 1691 0082 12B2     		sxth	r2, r2
 1692 0084 0592     		str	r2, [sp, #20]
 1693              	.LVL190:
 495:Core/Src/ssd1306.c ****             f += ddF_y;
 1694              		.loc 1 495 13 is_stmt 1 view .LVU433
 1695              		.loc 1 495 15 is_stmt 0 view .LVU434
 1696 0086 2344     		add	r3, r3, r4
 1697 0088 1CB2     		sxth	r4, r3
 1698              	.LVL191:
 1699              	.L121:
 496:Core/Src/ssd1306.c ****         }
 497:Core/Src/ssd1306.c ****         x++;
 1700              		.loc 1 497 9 is_stmt 1 view .LVU435
 1701              		.loc 1 497 10 is_stmt 0 view .LVU436
 1702 008a 039B     		ldr	r3, [sp, #12]
 1703 008c 0133     		adds	r3, r3, #1
 1704 008e 9DB2     		uxth	r5, r3
 1705 0090 1BB2     		sxth	r3, r3
 1706 0092 0393     		str	r3, [sp, #12]
 1707              	.LVL192:
 498:Core/Src/ssd1306.c ****         ddF_x += 2;
 1708              		.loc 1 498 9 is_stmt 1 view .LVU437
 1709              		.loc 1 498 15 is_stmt 0 view .LVU438
 1710 0094 049A     		ldr	r2, [sp, #16]
 1711 0096 0232     		adds	r2, r2, #2
 1712 0098 93B2     		uxth	r3, r2
 1713 009a 12B2     		sxth	r2, r2
 1714 009c 0492     		str	r2, [sp, #16]
 1715              	.LVL193:
 499:Core/Src/ssd1306.c ****         f += ddF_x;
 1716              		.loc 1 499 9 is_stmt 1 view .LVU439
 1717              		.loc 1 499 11 is_stmt 0 view .LVU440
 1718 009e 2344     		add	r3, r3, r4
 1719 00a0 1CB2     		sxth	r4, r3
 1720              	.LVL194:
 500:Core/Src/ssd1306.c **** 
 501:Core/Src/ssd1306.c ****         SSD1306_DrawLine(x0 - x, y0 + y, x0 + x, y0 + y, c);
 1721              		.loc 1 501 9 is_stmt 1 view .LVU441
ARM GAS  C:\Users\kroko\AppData\Local\Temp\ccWVPZuZ.s 			page 42


 1722 00a2 ABEB0509 		sub	r9, fp, r5
 1723 00a6 1FFA89F9 		uxth	r9, r9
 1724 00aa BDF80860 		ldrh	r6, [sp, #8]
 1725 00ae B919     		adds	r1, r7, r6
 1726 00b0 89B2     		uxth	r1, r1
 1727 00b2 0BEB0508 		add	r8, fp, r5
 1728 00b6 1FFA88F8 		uxth	r8, r8
 1729 00ba CDF800A0 		str	r10, [sp]
 1730 00be 0B46     		mov	r3, r1
 1731 00c0 4246     		mov	r2, r8
 1732 00c2 4846     		mov	r0, r9
 1733 00c4 FFF7FEFF 		bl	SSD1306_DrawLine
 1734              	.LVL195:
 502:Core/Src/ssd1306.c ****         SSD1306_DrawLine(x0 + x, y0 - y, x0 - x, y0 - y, c);
 1735              		.loc 1 502 9 view .LVU442
 1736 00c8 B91B     		subs	r1, r7, r6
 1737 00ca 89B2     		uxth	r1, r1
 1738 00cc CDF800A0 		str	r10, [sp]
 1739 00d0 0B46     		mov	r3, r1
 1740 00d2 4A46     		mov	r2, r9
 1741 00d4 4046     		mov	r0, r8
 1742 00d6 FFF7FEFF 		bl	SSD1306_DrawLine
 1743              	.LVL196:
 503:Core/Src/ssd1306.c **** 
 504:Core/Src/ssd1306.c ****         SSD1306_DrawLine(x0 + y, y0 + x, x0 - y, y0 + x, c);
 1744              		.loc 1 504 9 view .LVU443
 1745 00da 0BEB0608 		add	r8, fp, r6
 1746 00de 1FFA88F8 		uxth	r8, r8
 1747 00e2 7919     		adds	r1, r7, r5
 1748 00e4 89B2     		uxth	r1, r1
 1749 00e6 ABEB0606 		sub	r6, fp, r6
 1750 00ea B6B2     		uxth	r6, r6
 1751 00ec CDF800A0 		str	r10, [sp]
 1752 00f0 0B46     		mov	r3, r1
 1753 00f2 3246     		mov	r2, r6
 1754 00f4 4046     		mov	r0, r8
 1755 00f6 FFF7FEFF 		bl	SSD1306_DrawLine
 1756              	.LVL197:
 505:Core/Src/ssd1306.c ****         SSD1306_DrawLine(x0 + y, y0 - x, x0 - y, y0 - x, c);
 1757              		.loc 1 505 9 view .LVU444
 1758 00fa 791B     		subs	r1, r7, r5
 1759 00fc 89B2     		uxth	r1, r1
 1760 00fe CDF800A0 		str	r10, [sp]
 1761 0102 0B46     		mov	r3, r1
 1762 0104 3246     		mov	r2, r6
 1763 0106 4046     		mov	r0, r8
 1764 0108 FFF7FEFF 		bl	SSD1306_DrawLine
 1765              	.LVL198:
 1766              	.L120:
 491:Core/Src/ssd1306.c ****         if (f >= 0) {
 1767              		.loc 1 491 14 view .LVU445
 1768 010c 039B     		ldr	r3, [sp, #12]
 1769 010e 029A     		ldr	r2, [sp, #8]
 1770 0110 9342     		cmp	r3, r2
 1771 0112 02DA     		bge	.L124
 492:Core/Src/ssd1306.c ****             y--;
 1772              		.loc 1 492 9 view .LVU446
ARM GAS  C:\Users\kroko\AppData\Local\Temp\ccWVPZuZ.s 			page 43


 492:Core/Src/ssd1306.c ****             y--;
 1773              		.loc 1 492 12 is_stmt 0 view .LVU447
 1774 0114 002C     		cmp	r4, #0
 1775 0116 ADDA     		bge	.L125
 1776 0118 B7E7     		b	.L121
 1777              	.L124:
 506:Core/Src/ssd1306.c ****     }
 507:Core/Src/ssd1306.c **** }
 1778              		.loc 1 507 1 view .LVU448
 1779 011a 07B0     		add	sp, sp, #28
 1780              		.cfi_def_cfa_offset 36
 1781              		@ sp needed
 1782 011c BDE8F08F 		pop	{r4, r5, r6, r7, r8, r9, r10, fp, pc}
 1783              		.loc 1 507 1 view .LVU449
 1784              		.cfi_endproc
 1785              	.LFE79:
 1787              		.section	.text.SSD1306_DrawBitmap,"ax",%progbits
 1788              		.align	1
 1789              		.global	SSD1306_DrawBitmap
 1790              		.syntax unified
 1791              		.thumb
 1792              		.thumb_func
 1794              	SSD1306_DrawBitmap:
 1795              	.LVL199:
 1796              	.LFB86:
 508:Core/Src/ssd1306.c ****  
 509:Core/Src/ssd1306.c **** 
 510:Core/Src/ssd1306.c **** void SSD1306_ScrollRight(uint8_t start_row, uint8_t end_row)
 511:Core/Src/ssd1306.c **** {
 512:Core/Src/ssd1306.c ****   SSD1306_WRITECOMMAND (SSD1306_RIGHT_HORIZONTAL_SCROLL);  // send 0x26
 513:Core/Src/ssd1306.c ****   SSD1306_WRITECOMMAND (0x00);  // send dummy
 514:Core/Src/ssd1306.c ****   SSD1306_WRITECOMMAND(start_row);  // start page address
 515:Core/Src/ssd1306.c ****   SSD1306_WRITECOMMAND(0X00);  // time interval 5 frames
 516:Core/Src/ssd1306.c ****   SSD1306_WRITECOMMAND(end_row);  // end page address
 517:Core/Src/ssd1306.c ****   SSD1306_WRITECOMMAND(0X00);
 518:Core/Src/ssd1306.c ****   SSD1306_WRITECOMMAND(0XFF);
 519:Core/Src/ssd1306.c ****   SSD1306_WRITECOMMAND (SSD1306_ACTIVATE_SCROLL); // start scroll
 520:Core/Src/ssd1306.c **** }
 521:Core/Src/ssd1306.c **** 
 522:Core/Src/ssd1306.c **** 
 523:Core/Src/ssd1306.c **** void SSD1306_ScrollLeft(uint8_t start_row, uint8_t end_row)
 524:Core/Src/ssd1306.c **** {
 525:Core/Src/ssd1306.c ****   SSD1306_WRITECOMMAND (SSD1306_LEFT_HORIZONTAL_SCROLL);  // send 0x26
 526:Core/Src/ssd1306.c ****   SSD1306_WRITECOMMAND (0x00);  // send dummy
 527:Core/Src/ssd1306.c ****   SSD1306_WRITECOMMAND(start_row);  // start page address
 528:Core/Src/ssd1306.c ****   SSD1306_WRITECOMMAND(0X00);  // time interval 5 frames
 529:Core/Src/ssd1306.c ****   SSD1306_WRITECOMMAND(end_row);  // end page address
 530:Core/Src/ssd1306.c ****   SSD1306_WRITECOMMAND(0X00);
 531:Core/Src/ssd1306.c ****   SSD1306_WRITECOMMAND(0XFF);
 532:Core/Src/ssd1306.c ****   SSD1306_WRITECOMMAND (SSD1306_ACTIVATE_SCROLL); // start scroll
 533:Core/Src/ssd1306.c **** }
 534:Core/Src/ssd1306.c **** 
 535:Core/Src/ssd1306.c **** 
 536:Core/Src/ssd1306.c **** void SSD1306_Scrolldiagright(uint8_t start_row, uint8_t end_row)
 537:Core/Src/ssd1306.c **** {
 538:Core/Src/ssd1306.c ****   SSD1306_WRITECOMMAND(SSD1306_SET_VERTICAL_SCROLL_AREA);  // sect the area
 539:Core/Src/ssd1306.c ****   SSD1306_WRITECOMMAND (0x00);   // write dummy
ARM GAS  C:\Users\kroko\AppData\Local\Temp\ccWVPZuZ.s 			page 44


 540:Core/Src/ssd1306.c ****   SSD1306_WRITECOMMAND(SSD1306_HEIGHT);
 541:Core/Src/ssd1306.c **** 
 542:Core/Src/ssd1306.c ****   SSD1306_WRITECOMMAND(SSD1306_VERTICAL_AND_RIGHT_HORIZONTAL_SCROLL);
 543:Core/Src/ssd1306.c ****   SSD1306_WRITECOMMAND (0x00);
 544:Core/Src/ssd1306.c ****   SSD1306_WRITECOMMAND(start_row);
 545:Core/Src/ssd1306.c ****   SSD1306_WRITECOMMAND(0X00);
 546:Core/Src/ssd1306.c ****   SSD1306_WRITECOMMAND(end_row);
 547:Core/Src/ssd1306.c ****   SSD1306_WRITECOMMAND (0x01);
 548:Core/Src/ssd1306.c ****   SSD1306_WRITECOMMAND (SSD1306_ACTIVATE_SCROLL);
 549:Core/Src/ssd1306.c **** }
 550:Core/Src/ssd1306.c **** 
 551:Core/Src/ssd1306.c **** 
 552:Core/Src/ssd1306.c **** void SSD1306_Scrolldiagleft(uint8_t start_row, uint8_t end_row)
 553:Core/Src/ssd1306.c **** {
 554:Core/Src/ssd1306.c ****   SSD1306_WRITECOMMAND(SSD1306_SET_VERTICAL_SCROLL_AREA);  // sect the area
 555:Core/Src/ssd1306.c ****   SSD1306_WRITECOMMAND (0x00);   // write dummy
 556:Core/Src/ssd1306.c ****   SSD1306_WRITECOMMAND(SSD1306_HEIGHT);
 557:Core/Src/ssd1306.c **** 
 558:Core/Src/ssd1306.c ****   SSD1306_WRITECOMMAND(SSD1306_VERTICAL_AND_LEFT_HORIZONTAL_SCROLL);
 559:Core/Src/ssd1306.c ****   SSD1306_WRITECOMMAND (0x00);
 560:Core/Src/ssd1306.c ****   SSD1306_WRITECOMMAND(start_row);
 561:Core/Src/ssd1306.c ****   SSD1306_WRITECOMMAND(0X00);
 562:Core/Src/ssd1306.c ****   SSD1306_WRITECOMMAND(end_row);
 563:Core/Src/ssd1306.c ****   SSD1306_WRITECOMMAND (0x01);
 564:Core/Src/ssd1306.c ****   SSD1306_WRITECOMMAND (SSD1306_ACTIVATE_SCROLL);
 565:Core/Src/ssd1306.c **** }
 566:Core/Src/ssd1306.c **** 
 567:Core/Src/ssd1306.c **** 
 568:Core/Src/ssd1306.c **** void SSD1306_Stopscroll(void)
 569:Core/Src/ssd1306.c **** {
 570:Core/Src/ssd1306.c **** 	SSD1306_WRITECOMMAND(SSD1306_DEACTIVATE_SCROLL);
 571:Core/Src/ssd1306.c **** }
 572:Core/Src/ssd1306.c **** 
 573:Core/Src/ssd1306.c **** 
 574:Core/Src/ssd1306.c **** 
 575:Core/Src/ssd1306.c **** void SSD1306_InvertDisplay (int i)
 576:Core/Src/ssd1306.c **** {
 577:Core/Src/ssd1306.c ****   if (i) SSD1306_WRITECOMMAND (SSD1306_INVERTDISPLAY);
 578:Core/Src/ssd1306.c **** 
 579:Core/Src/ssd1306.c ****   else SSD1306_WRITECOMMAND (SSD1306_NORMALDISPLAY);
 580:Core/Src/ssd1306.c **** 
 581:Core/Src/ssd1306.c **** }
 582:Core/Src/ssd1306.c **** 
 583:Core/Src/ssd1306.c **** 
 584:Core/Src/ssd1306.c **** void SSD1306_DrawBitmap(int16_t x, int16_t y, const unsigned char* bitmap, int16_t w, int16_t h, ui
 585:Core/Src/ssd1306.c **** {
 1797              		.loc 1 585 1 is_stmt 1 view -0
 1798              		.cfi_startproc
 1799              		@ args = 8, pretend = 0, frame = 8
 1800              		@ frame_needed = 0, uses_anonymous_args = 0
 1801              		.loc 1 585 1 is_stmt 0 view .LVU451
 1802 0000 2DE9F04F 		push	{r4, r5, r6, r7, r8, r9, r10, fp, lr}
 1803              		.cfi_def_cfa_offset 36
 1804              		.cfi_offset 4, -36
 1805              		.cfi_offset 5, -32
 1806              		.cfi_offset 6, -28
 1807              		.cfi_offset 7, -24
ARM GAS  C:\Users\kroko\AppData\Local\Temp\ccWVPZuZ.s 			page 45


 1808              		.cfi_offset 8, -20
 1809              		.cfi_offset 9, -16
 1810              		.cfi_offset 10, -12
 1811              		.cfi_offset 11, -8
 1812              		.cfi_offset 14, -4
 1813 0004 83B0     		sub	sp, sp, #12
 1814              		.cfi_def_cfa_offset 48
 1815 0006 8246     		mov	r10, r0
 1816 0008 8B46     		mov	fp, r1
 1817 000a 9146     		mov	r9, r2
 1818 000c 1E46     		mov	r6, r3
 1819 000e BDF93030 		ldrsh	r3, [sp, #48]
 1820              	.LVL200:
 1821              		.loc 1 585 1 view .LVU452
 1822 0012 0193     		str	r3, [sp, #4]
 1823 0014 BDF83430 		ldrh	r3, [sp, #52]
 1824 0018 0093     		str	r3, [sp]
 586:Core/Src/ssd1306.c **** 
 587:Core/Src/ssd1306.c ****     int16_t byteWidth = (w + 7) / 8; // Bitmap scanline pad = whole byte
 1825              		.loc 1 587 5 is_stmt 1 view .LVU453
 1826              		.loc 1 587 33 is_stmt 0 view .LVU454
 1827 001a 16F10708 		adds	r8, r6, #7
 1828 001e 04D4     		bmi	.L137
 1829              	.L127:
 1830              		.loc 1 587 13 view .LVU455
 1831 0020 4FEAE808 		asr	r8, r8, #3
 1832              	.LVL201:
 588:Core/Src/ssd1306.c ****     uint8_t byte = 0;
 1833              		.loc 1 588 5 is_stmt 1 view .LVU456
 589:Core/Src/ssd1306.c **** 
 590:Core/Src/ssd1306.c ****     for(int16_t j=0; j<h; j++, y++)
 1834              		.loc 1 590 5 view .LVU457
 1835              	.LBB2:
 1836              		.loc 1 590 9 view .LVU458
 1837              		.loc 1 590 17 is_stmt 0 view .LVU459
 1838 0024 0027     		movs	r7, #0
 1839              	.LBE2:
 588:Core/Src/ssd1306.c ****     uint8_t byte = 0;
 1840              		.loc 1 588 13 view .LVU460
 1841 0026 3D46     		mov	r5, r7
 1842              	.LBB5:
 1843              		.loc 1 590 5 view .LVU461
 1844 0028 2CE0     		b	.L128
 1845              	.LVL202:
 1846              	.L137:
 1847              		.loc 1 590 5 view .LVU462
 1848              	.LBE5:
 587:Core/Src/ssd1306.c ****     uint8_t byte = 0;
 1849              		.loc 1 587 33 view .LVU463
 1850 002a 08F10708 		add	r8, r8, #7
 1851 002e F7E7     		b	.L127
 1852              	.LVL203:
 1853              	.L129:
 1854              	.LBB6:
 1855              	.LBB3:
 591:Core/Src/ssd1306.c ****     {
 592:Core/Src/ssd1306.c ****         for(int16_t i=0; i<w; i++)
ARM GAS  C:\Users\kroko\AppData\Local\Temp\ccWVPZuZ.s 			page 46


 593:Core/Src/ssd1306.c ****         {
 594:Core/Src/ssd1306.c ****             if(i & 7)
 595:Core/Src/ssd1306.c ****             {
 596:Core/Src/ssd1306.c ****                byte <<= 1;
 597:Core/Src/ssd1306.c ****             }
 598:Core/Src/ssd1306.c ****             else
 599:Core/Src/ssd1306.c ****             {
 600:Core/Src/ssd1306.c ****                byte = (*(const unsigned char *)(&bitmap[j * byteWidth + i / 8]));
 1856              		.loc 1 600 16 is_stmt 1 view .LVU464
 1857              		.loc 1 600 59 is_stmt 0 view .LVU465
 1858 0030 08FB07F1 		mul	r1, r8, r7
 1859              		.loc 1 600 75 view .LVU466
 1860 0034 1A46     		mov	r2, r3
 1861 0036 002B     		cmp	r3, #0
 1862 0038 12DB     		blt	.L138
 1863              	.L131:
 1864 003a 42F3CF02 		sbfx	r2, r2, #3, #16
 1865              		.loc 1 600 71 view .LVU467
 1866 003e 8B18     		adds	r3, r1, r2
 1867              	.LVL204:
 1868              		.loc 1 600 21 view .LVU468
 1869 0040 19F80350 		ldrb	r5, [r9, r3]	@ zero_extendqisi2
 1870              	.LVL205:
 1871              	.L130:
 601:Core/Src/ssd1306.c ****             }
 602:Core/Src/ssd1306.c ****             if(byte & 0x80) SSD1306_DrawPixel(x+i, y, color);
 1872              		.loc 1 602 13 is_stmt 1 view .LVU469
 1873              		.loc 1 602 15 is_stmt 0 view .LVU470
 1874 0044 15F0800F 		tst	r5, #128
 1875 0048 0CD1     		bne	.L139
 1876              	.L132:
 592:Core/Src/ssd1306.c ****         {
 1877              		.loc 1 592 32 is_stmt 1 discriminator 2 view .LVU471
 1878 004a 0134     		adds	r4, r4, #1
 1879              	.LVL206:
 592:Core/Src/ssd1306.c ****         {
 1880              		.loc 1 592 32 is_stmt 0 discriminator 2 view .LVU472
 1881 004c 23B2     		sxth	r3, r4
 1882              	.LVL207:
 1883              	.L134:
 592:Core/Src/ssd1306.c ****         {
 1884              		.loc 1 592 27 is_stmt 1 discriminator 1 view .LVU473
 1885 004e B342     		cmp	r3, r6
 1886 0050 12DA     		bge	.L140
 594:Core/Src/ssd1306.c ****             {
 1887              		.loc 1 594 13 view .LVU474
 594:Core/Src/ssd1306.c ****             {
 1888              		.loc 1 594 18 is_stmt 0 view .LVU475
 1889 0052 9CB2     		uxth	r4, r3
 594:Core/Src/ssd1306.c ****             {
 1890              		.loc 1 594 15 view .LVU476
 1891 0054 13F0070F 		tst	r3, #7
 1892 0058 EAD0     		beq	.L129
 596:Core/Src/ssd1306.c ****             }
 1893              		.loc 1 596 16 is_stmt 1 view .LVU477
 596:Core/Src/ssd1306.c ****             }
 1894              		.loc 1 596 21 is_stmt 0 view .LVU478
ARM GAS  C:\Users\kroko\AppData\Local\Temp\ccWVPZuZ.s 			page 47


 1895 005a 6D00     		lsls	r5, r5, #1
 1896              	.LVL208:
 596:Core/Src/ssd1306.c ****             }
 1897              		.loc 1 596 21 view .LVU479
 1898 005c EDB2     		uxtb	r5, r5
 1899              	.LVL209:
 596:Core/Src/ssd1306.c ****             }
 1900              		.loc 1 596 21 view .LVU480
 1901 005e F1E7     		b	.L130
 1902              	.L138:
 600:Core/Src/ssd1306.c ****             }
 1903              		.loc 1 600 75 view .LVU481
 1904 0060 DA1D     		adds	r2, r3, #7
 1905 0062 EAE7     		b	.L131
 1906              	.LVL210:
 1907              	.L139:
 1908              		.loc 1 602 29 is_stmt 1 discriminator 1 view .LVU482
 1909 0064 04EB0A00 		add	r0, r4, r10
 1910 0068 9DF80020 		ldrb	r2, [sp]	@ zero_extendqisi2
 1911 006c 1FFA8BF1 		uxth	r1, fp
 1912 0070 80B2     		uxth	r0, r0
 1913 0072 FFF7FEFF 		bl	SSD1306_DrawPixel
 1914              	.LVL211:
 1915 0076 E8E7     		b	.L132
 1916              	.LVL212:
 1917              	.L140:
 1918              		.loc 1 602 29 is_stmt 0 discriminator 1 view .LVU483
 1919              	.LBE3:
 590:Core/Src/ssd1306.c ****     {
 1920              		.loc 1 590 30 is_stmt 1 discriminator 2 view .LVU484
 590:Core/Src/ssd1306.c ****     {
 1921              		.loc 1 590 28 is_stmt 0 discriminator 2 view .LVU485
 1922 0078 0137     		adds	r7, r7, #1
 1923              	.LVL213:
 590:Core/Src/ssd1306.c ****     {
 1924              		.loc 1 590 28 discriminator 2 view .LVU486
 1925 007a 3FB2     		sxth	r7, r7
 1926              	.LVL214:
 590:Core/Src/ssd1306.c ****     {
 1927              		.loc 1 590 33 discriminator 2 view .LVU487
 1928 007c 0BF10101 		add	r1, fp, #1
 1929 0080 0FFA81FB 		sxth	fp, r1
 1930              	.LVL215:
 1931              	.L128:
 590:Core/Src/ssd1306.c ****     {
 1932              		.loc 1 590 23 is_stmt 1 discriminator 1 view .LVU488
 1933 0084 019B     		ldr	r3, [sp, #4]
 1934 0086 9F42     		cmp	r7, r3
 1935 0088 01DA     		bge	.L141
 1936              	.LBB4:
 592:Core/Src/ssd1306.c ****         {
 1937              		.loc 1 592 21 is_stmt 0 view .LVU489
 1938 008a 0023     		movs	r3, #0
 1939 008c DFE7     		b	.L134
 1940              	.L141:
 1941              	.LBE4:
 1942              	.LBE6:
ARM GAS  C:\Users\kroko\AppData\Local\Temp\ccWVPZuZ.s 			page 48


 603:Core/Src/ssd1306.c ****         }
 604:Core/Src/ssd1306.c ****     }
 605:Core/Src/ssd1306.c **** }
 1943              		.loc 1 605 1 view .LVU490
 1944 008e 03B0     		add	sp, sp, #12
 1945              		.cfi_def_cfa_offset 36
 1946              		@ sp needed
 1947 0090 BDE8F08F 		pop	{r4, r5, r6, r7, r8, r9, r10, fp, pc}
 1948              		.loc 1 605 1 view .LVU491
 1949              		.cfi_endproc
 1950              	.LFE86:
 1952              		.section	.text.ssd1306_I2C_Init,"ax",%progbits
 1953              		.align	1
 1954              		.global	ssd1306_I2C_Init
 1955              		.syntax unified
 1956              		.thumb
 1957              		.thumb_func
 1959              	ssd1306_I2C_Init:
 1960              	.LFB90:
 606:Core/Src/ssd1306.c **** 
 607:Core/Src/ssd1306.c **** void SSD1306_Clear (void)
 608:Core/Src/ssd1306.c **** {
 609:Core/Src/ssd1306.c **** 	SSD1306_Fill (0);
 610:Core/Src/ssd1306.c ****     SSD1306_UpdateScreen();
 611:Core/Src/ssd1306.c **** }
 612:Core/Src/ssd1306.c **** void SSD1306_ON(void) {
 613:Core/Src/ssd1306.c **** 	SSD1306_WRITECOMMAND(0x8D);  
 614:Core/Src/ssd1306.c **** 	SSD1306_WRITECOMMAND(0x14);  
 615:Core/Src/ssd1306.c **** 	SSD1306_WRITECOMMAND(0xAF);  
 616:Core/Src/ssd1306.c **** }
 617:Core/Src/ssd1306.c **** void SSD1306_OFF(void) {
 618:Core/Src/ssd1306.c **** 	SSD1306_WRITECOMMAND(0x8D);  
 619:Core/Src/ssd1306.c **** 	SSD1306_WRITECOMMAND(0x10);
 620:Core/Src/ssd1306.c **** 	SSD1306_WRITECOMMAND(0xAE);  
 621:Core/Src/ssd1306.c **** }
 622:Core/Src/ssd1306.c **** 
 623:Core/Src/ssd1306.c **** ///////////////////////////////////////////////////////////////////////////////////////////////////
 624:Core/Src/ssd1306.c **** //  _____ ___   _____ 
 625:Core/Src/ssd1306.c **** // |_   _|__ \ / ____|
 626:Core/Src/ssd1306.c **** //   | |    ) | |     
 627:Core/Src/ssd1306.c **** //   | |   / /| |     
 628:Core/Src/ssd1306.c **** //  _| |_ / /_| |____ 
 629:Core/Src/ssd1306.c **** // |_____|____|\_____|
 630:Core/Src/ssd1306.c **** //
 631:Core/Src/ssd1306.c **** ///////////////////////////////////////////////////////////////////////////////////////////////////
 632:Core/Src/ssd1306.c **** 
 633:Core/Src/ssd1306.c **** void ssd1306_I2C_Init() {
 1961              		.loc 1 633 25 is_stmt 1 view -0
 1962              		.cfi_startproc
 1963              		@ args = 0, pretend = 0, frame = 0
 1964              		@ frame_needed = 0, uses_anonymous_args = 0
 1965              		@ link register save eliminated.
 634:Core/Src/ssd1306.c **** 	//MX_I2C1_Init();
 635:Core/Src/ssd1306.c **** 	uint32_t p = 250000;
 1966              		.loc 1 635 2 view .LVU493
 1967              	.LVL216:
 636:Core/Src/ssd1306.c **** 	while(p>0)
ARM GAS  C:\Users\kroko\AppData\Local\Temp\ccWVPZuZ.s 			page 49


 1968              		.loc 1 636 2 view .LVU494
 635:Core/Src/ssd1306.c **** 	while(p>0)
 1969              		.loc 1 635 11 is_stmt 0 view .LVU495
 1970 0000 024B     		ldr	r3, .L145
 1971              		.loc 1 636 7 view .LVU496
 1972 0002 00E0     		b	.L143
 1973              	.LVL217:
 1974              	.L144:
 637:Core/Src/ssd1306.c **** 		p--;
 1975              		.loc 1 637 3 is_stmt 1 view .LVU497
 1976              		.loc 1 637 4 is_stmt 0 view .LVU498
 1977 0004 013B     		subs	r3, r3, #1
 1978              	.LVL218:
 1979              	.L143:
 636:Core/Src/ssd1306.c **** 	while(p>0)
 1980              		.loc 1 636 9 is_stmt 1 view .LVU499
 1981 0006 002B     		cmp	r3, #0
 1982 0008 FCD1     		bne	.L144
 638:Core/Src/ssd1306.c **** 	//HAL_I2C_DeInit(&hi2c1);
 639:Core/Src/ssd1306.c **** 	//p = 250000;
 640:Core/Src/ssd1306.c **** 	//while(p>0)
 641:Core/Src/ssd1306.c **** 	//	p--;
 642:Core/Src/ssd1306.c **** 	//MX_I2C1_Init();
 643:Core/Src/ssd1306.c **** }
 1983              		.loc 1 643 1 is_stmt 0 view .LVU500
 1984 000a 7047     		bx	lr
 1985              	.L146:
 1986              		.align	2
 1987              	.L145:
 1988 000c 90D00300 		.word	250000
 1989              		.cfi_endproc
 1990              	.LFE90:
 1992              		.section	.text.ssd1306_I2C_WriteMulti,"ax",%progbits
 1993              		.align	1
 1994              		.global	ssd1306_I2C_WriteMulti
 1995              		.syntax unified
 1996              		.thumb
 1997              		.thumb_func
 1999              	ssd1306_I2C_WriteMulti:
 2000              	.LVL219:
 2001              	.LFB91:
 644:Core/Src/ssd1306.c **** 
 645:Core/Src/ssd1306.c **** void ssd1306_I2C_WriteMulti(uint8_t address, uint8_t reg, uint8_t* data, uint16_t count) {
 2002              		.loc 1 645 90 is_stmt 1 view -0
 2003              		.cfi_startproc
 2004              		@ args = 0, pretend = 0, frame = 256
 2005              		@ frame_needed = 0, uses_anonymous_args = 0
 2006              		.loc 1 645 90 is_stmt 0 view .LVU502
 2007 0000 00B5     		push	{lr}
 2008              		.cfi_def_cfa_offset 4
 2009              		.cfi_offset 14, -4
 2010 0002 C3B0     		sub	sp, sp, #268
 2011              		.cfi_def_cfa_offset 272
 646:Core/Src/ssd1306.c **** uint8_t dt[256];
 2012              		.loc 1 646 1 is_stmt 1 view .LVU503
 647:Core/Src/ssd1306.c **** dt[0] = reg;
 2013              		.loc 1 647 1 view .LVU504
ARM GAS  C:\Users\kroko\AppData\Local\Temp\ccWVPZuZ.s 			page 50


 2014              		.loc 1 647 7 is_stmt 0 view .LVU505
 2015 0004 8DF80810 		strb	r1, [sp, #8]
 648:Core/Src/ssd1306.c **** uint8_t i;
 2016              		.loc 1 648 1 is_stmt 1 view .LVU506
 649:Core/Src/ssd1306.c **** for(i = 0; i < count; i++)
 2017              		.loc 1 649 1 view .LVU507
 2018              	.LVL220:
 2019              		.loc 1 649 7 is_stmt 0 view .LVU508
 2020 0008 4FF0000C 		mov	ip, #0
 2021              		.loc 1 649 1 view .LVU509
 2022 000c 09E0     		b	.L148
 2023              	.LVL221:
 2024              	.L149:
 650:Core/Src/ssd1306.c **** dt[i+1] = data[i];
 2025              		.loc 1 650 1 is_stmt 1 view .LVU510
 2026              		.loc 1 650 5 is_stmt 0 view .LVU511
 2027 000e 0CF1010E 		add	lr, ip, #1
 2028              		.loc 1 650 15 view .LVU512
 2029 0012 12F80C10 		ldrb	r1, [r2, ip]	@ zero_extendqisi2
 2030              		.loc 1 650 9 view .LVU513
 2031 0016 0DF1080C 		add	ip, sp, #8
 2032              	.LVL222:
 2033              		.loc 1 650 9 view .LVU514
 2034 001a 0CF80E10 		strb	r1, [ip, lr]
 649:Core/Src/ssd1306.c **** for(i = 0; i < count; i++)
 2035              		.loc 1 649 24 is_stmt 1 discriminator 3 view .LVU515
 2036 001e 5FFA8EFC 		uxtb	ip, lr
 2037              	.LVL223:
 2038              	.L148:
 649:Core/Src/ssd1306.c **** for(i = 0; i < count; i++)
 2039              		.loc 1 649 14 discriminator 1 view .LVU516
 2040 0022 9C45     		cmp	ip, r3
 2041 0024 F3D3     		bcc	.L149
 651:Core/Src/ssd1306.c **** HAL_I2C_Master_Transmit(SSD1306_I2C, address, dt, count+1, 10);
 2042              		.loc 1 651 1 view .LVU517
 2043 0026 0133     		adds	r3, r3, #1
 2044              	.LVL224:
 2045              		.loc 1 651 1 is_stmt 0 view .LVU518
 2046 0028 0A22     		movs	r2, #10
 2047              	.LVL225:
 2048              		.loc 1 651 1 view .LVU519
 2049 002a 0092     		str	r2, [sp]
 2050 002c 9BB2     		uxth	r3, r3
 2051 002e 02AA     		add	r2, sp, #8
 2052 0030 0146     		mov	r1, r0
 2053 0032 0348     		ldr	r0, .L151
 2054              	.LVL226:
 2055              		.loc 1 651 1 view .LVU520
 2056 0034 FFF7FEFF 		bl	HAL_I2C_Master_Transmit
 2057              	.LVL227:
 652:Core/Src/ssd1306.c **** }
 2058              		.loc 1 652 1 view .LVU521
 2059 0038 43B0     		add	sp, sp, #268
 2060              		.cfi_def_cfa_offset 4
 2061              		@ sp needed
 2062 003a 5DF804FB 		ldr	pc, [sp], #4
 2063              	.L152:
ARM GAS  C:\Users\kroko\AppData\Local\Temp\ccWVPZuZ.s 			page 51


 2064 003e 00BF     		.align	2
 2065              	.L151:
 2066 0040 00000000 		.word	hi2c1
 2067              		.cfi_endproc
 2068              	.LFE91:
 2070              		.section	.text.ssd1306_I2C_Write,"ax",%progbits
 2071              		.align	1
 2072              		.global	ssd1306_I2C_Write
 2073              		.syntax unified
 2074              		.thumb
 2075              		.thumb_func
 2077              	ssd1306_I2C_Write:
 2078              	.LVL228:
 2079              	.LFB92:
 653:Core/Src/ssd1306.c **** 
 654:Core/Src/ssd1306.c **** 
 655:Core/Src/ssd1306.c **** void ssd1306_I2C_Write(uint8_t address, uint8_t reg, uint8_t data) {
 2080              		.loc 1 655 68 is_stmt 1 view -0
 2081              		.cfi_startproc
 2082              		@ args = 0, pretend = 0, frame = 8
 2083              		@ frame_needed = 0, uses_anonymous_args = 0
 2084              		.loc 1 655 68 is_stmt 0 view .LVU523
 2085 0000 00B5     		push	{lr}
 2086              		.cfi_def_cfa_offset 4
 2087              		.cfi_offset 14, -4
 2088 0002 85B0     		sub	sp, sp, #20
 2089              		.cfi_def_cfa_offset 24
 656:Core/Src/ssd1306.c **** 	uint8_t dt[2];
 2090              		.loc 1 656 2 is_stmt 1 view .LVU524
 657:Core/Src/ssd1306.c **** 	dt[0] = reg;
 2091              		.loc 1 657 2 view .LVU525
 2092              		.loc 1 657 8 is_stmt 0 view .LVU526
 2093 0004 8DF80C10 		strb	r1, [sp, #12]
 658:Core/Src/ssd1306.c **** 	dt[1] = data;
 2094              		.loc 1 658 2 is_stmt 1 view .LVU527
 2095              		.loc 1 658 8 is_stmt 0 view .LVU528
 2096 0008 8DF80D20 		strb	r2, [sp, #13]
 659:Core/Src/ssd1306.c **** 	HAL_I2C_Master_Transmit(SSD1306_I2C, address, dt, 2, 10);
 2097              		.loc 1 659 2 is_stmt 1 view .LVU529
 2098 000c 0A23     		movs	r3, #10
 2099 000e 0093     		str	r3, [sp]
 2100 0010 0223     		movs	r3, #2
 2101 0012 03AA     		add	r2, sp, #12
 2102              	.LVL229:
 2103              		.loc 1 659 2 is_stmt 0 view .LVU530
 2104 0014 0146     		mov	r1, r0
 2105              	.LVL230:
 2106              		.loc 1 659 2 view .LVU531
 2107 0016 0348     		ldr	r0, .L155
 2108              	.LVL231:
 2109              		.loc 1 659 2 view .LVU532
 2110 0018 FFF7FEFF 		bl	HAL_I2C_Master_Transmit
 2111              	.LVL232:
 660:Core/Src/ssd1306.c **** }
 2112              		.loc 1 660 1 view .LVU533
 2113 001c 05B0     		add	sp, sp, #20
 2114              		.cfi_def_cfa_offset 4
ARM GAS  C:\Users\kroko\AppData\Local\Temp\ccWVPZuZ.s 			page 52


 2115              		@ sp needed
 2116 001e 5DF804FB 		ldr	pc, [sp], #4
 2117              	.L156:
 2118 0022 00BF     		.align	2
 2119              	.L155:
 2120 0024 00000000 		.word	hi2c1
 2121              		.cfi_endproc
 2122              	.LFE92:
 2124              		.section	.text.SSD1306_UpdateScreen,"ax",%progbits
 2125              		.align	1
 2126              		.global	SSD1306_UpdateScreen
 2127              		.syntax unified
 2128              		.thumb
 2129              		.thumb_func
 2131              	SSD1306_UpdateScreen:
 2132              	.LFB66:
 137:Core/Src/ssd1306.c **** 	uint8_t m;
 2133              		.loc 1 137 33 is_stmt 1 view -0
 2134              		.cfi_startproc
 2135              		@ args = 0, pretend = 0, frame = 0
 2136              		@ frame_needed = 0, uses_anonymous_args = 0
 2137 0000 10B5     		push	{r4, lr}
 2138              		.cfi_def_cfa_offset 8
 2139              		.cfi_offset 4, -8
 2140              		.cfi_offset 14, -4
 138:Core/Src/ssd1306.c **** 	
 2141              		.loc 1 138 2 view .LVU535
 140:Core/Src/ssd1306.c **** 		SSD1306_WRITECOMMAND(0xB0 + m);
 2142              		.loc 1 140 2 view .LVU536
 2143              	.LVL233:
 140:Core/Src/ssd1306.c **** 		SSD1306_WRITECOMMAND(0xB0 + m);
 2144              		.loc 1 140 9 is_stmt 0 view .LVU537
 2145 0002 0024     		movs	r4, #0
 140:Core/Src/ssd1306.c **** 		SSD1306_WRITECOMMAND(0xB0 + m);
 2146              		.loc 1 140 2 view .LVU538
 2147 0004 1AE0     		b	.L158
 2148              	.LVL234:
 2149              	.L159:
 141:Core/Src/ssd1306.c **** 		SSD1306_WRITECOMMAND(0x00);
 2150              		.loc 1 141 3 is_stmt 1 view .LVU539
 2151 0006 A4F15002 		sub	r2, r4, #80
 2152 000a D2B2     		uxtb	r2, r2
 2153 000c 0021     		movs	r1, #0
 2154 000e 7820     		movs	r0, #120
 2155 0010 FFF7FEFF 		bl	ssd1306_I2C_Write
 2156              	.LVL235:
 142:Core/Src/ssd1306.c **** 		SSD1306_WRITECOMMAND(0x10);
 2157              		.loc 1 142 3 view .LVU540
 2158 0014 0022     		movs	r2, #0
 2159 0016 1146     		mov	r1, r2
 2160 0018 7820     		movs	r0, #120
 2161 001a FFF7FEFF 		bl	ssd1306_I2C_Write
 2162              	.LVL236:
 143:Core/Src/ssd1306.c **** 		
 2163              		.loc 1 143 3 view .LVU541
 2164 001e 1022     		movs	r2, #16
 2165 0020 0021     		movs	r1, #0
ARM GAS  C:\Users\kroko\AppData\Local\Temp\ccWVPZuZ.s 			page 53


 2166 0022 7820     		movs	r0, #120
 2167 0024 FFF7FEFF 		bl	ssd1306_I2C_Write
 2168              	.LVL237:
 146:Core/Src/ssd1306.c **** 	}
 2169              		.loc 1 146 3 view .LVU542
 2170 0028 8023     		movs	r3, #128
 2171 002a 064A     		ldr	r2, .L161
 2172 002c 02EBC412 		add	r2, r2, r4, lsl #7
 2173 0030 4021     		movs	r1, #64
 2174 0032 7820     		movs	r0, #120
 2175 0034 FFF7FEFF 		bl	ssd1306_I2C_WriteMulti
 2176              	.LVL238:
 140:Core/Src/ssd1306.c **** 		SSD1306_WRITECOMMAND(0xB0 + m);
 2177              		.loc 1 140 22 discriminator 3 view .LVU543
 2178 0038 0134     		adds	r4, r4, #1
 2179              	.LVL239:
 140:Core/Src/ssd1306.c **** 		SSD1306_WRITECOMMAND(0xB0 + m);
 2180              		.loc 1 140 22 is_stmt 0 discriminator 3 view .LVU544
 2181 003a E4B2     		uxtb	r4, r4
 2182              	.LVL240:
 2183              	.L158:
 140:Core/Src/ssd1306.c **** 		SSD1306_WRITECOMMAND(0xB0 + m);
 2184              		.loc 1 140 16 is_stmt 1 discriminator 1 view .LVU545
 2185 003c 072C     		cmp	r4, #7
 2186 003e E2D9     		bls	.L159
 148:Core/Src/ssd1306.c **** 
 2187              		.loc 1 148 1 is_stmt 0 view .LVU546
 2188 0040 10BD     		pop	{r4, pc}
 2189              	.LVL241:
 2190              	.L162:
 148:Core/Src/ssd1306.c **** 
 2191              		.loc 1 148 1 view .LVU547
 2192 0042 00BF     		.align	2
 2193              	.L161:
 2194 0044 00000000 		.word	SSD1306_Buffer
 2195              		.cfi_endproc
 2196              	.LFE66:
 2198              		.section	.text.SSD1306_Clear,"ax",%progbits
 2199              		.align	1
 2200              		.global	SSD1306_Clear
 2201              		.syntax unified
 2202              		.thumb
 2203              		.thumb_func
 2205              	SSD1306_Clear:
 2206              	.LFB87:
 608:Core/Src/ssd1306.c **** 	SSD1306_Fill (0);
 2207              		.loc 1 608 1 is_stmt 1 view -0
 2208              		.cfi_startproc
 2209              		@ args = 0, pretend = 0, frame = 0
 2210              		@ frame_needed = 0, uses_anonymous_args = 0
 2211 0000 08B5     		push	{r3, lr}
 2212              		.cfi_def_cfa_offset 8
 2213              		.cfi_offset 3, -8
 2214              		.cfi_offset 14, -4
 609:Core/Src/ssd1306.c ****     SSD1306_UpdateScreen();
 2215              		.loc 1 609 2 view .LVU549
 2216 0002 0020     		movs	r0, #0
ARM GAS  C:\Users\kroko\AppData\Local\Temp\ccWVPZuZ.s 			page 54


 2217 0004 FFF7FEFF 		bl	SSD1306_Fill
 2218              	.LVL242:
 610:Core/Src/ssd1306.c **** }
 2219              		.loc 1 610 5 view .LVU550
 2220 0008 FFF7FEFF 		bl	SSD1306_UpdateScreen
 2221              	.LVL243:
 611:Core/Src/ssd1306.c **** void SSD1306_ON(void) {
 2222              		.loc 1 611 1 is_stmt 0 view .LVU551
 2223 000c 08BD     		pop	{r3, pc}
 2224              		.cfi_endproc
 2225              	.LFE87:
 2227              		.section	.text.SSD1306_Init,"ax",%progbits
 2228              		.align	1
 2229              		.global	SSD1306_Init
 2230              		.syntax unified
 2231              		.thumb
 2232              		.thumb_func
 2234              	SSD1306_Init:
 2235              	.LFB65:
  51:Core/Src/ssd1306.c **** 
 2236              		.loc 1 51 28 is_stmt 1 view -0
 2237              		.cfi_startproc
 2238              		@ args = 0, pretend = 0, frame = 0
 2239              		@ frame_needed = 0, uses_anonymous_args = 0
 2240 0000 08B5     		push	{r3, lr}
 2241              		.cfi_def_cfa_offset 8
 2242              		.cfi_offset 3, -8
 2243              		.cfi_offset 14, -4
  54:Core/Src/ssd1306.c **** 	
 2244              		.loc 1 54 2 view .LVU553
  57:Core/Src/ssd1306.c **** 		/* Return false */
 2245              		.loc 1 57 2 view .LVU554
  57:Core/Src/ssd1306.c **** 		/* Return false */
 2246              		.loc 1 57 6 is_stmt 0 view .LVU555
 2247 0002 44F62063 		movw	r3, #20000
 2248 0006 0122     		movs	r2, #1
 2249 0008 7821     		movs	r1, #120
 2250 000a 5548     		ldr	r0, .L171
 2251 000c FFF7FEFF 		bl	HAL_I2C_IsDeviceReady
 2252              	.LVL244:
  57:Core/Src/ssd1306.c **** 		/* Return false */
 2253              		.loc 1 57 5 discriminator 1 view .LVU556
 2254 0010 0028     		cmp	r0, #0
 2255 0012 40F0A380 		bne	.L169
  63:Core/Src/ssd1306.c **** 	while(p>0)
 2256              		.loc 1 63 11 view .LVU557
 2257 0016 40F6C413 		movw	r3, #2500
 2258 001a 00E0     		b	.L167
 2259              	.LVL245:
 2260              	.L168:
  65:Core/Src/ssd1306.c **** 	
 2261              		.loc 1 65 3 is_stmt 1 view .LVU558
  65:Core/Src/ssd1306.c **** 	
 2262              		.loc 1 65 4 is_stmt 0 view .LVU559
 2263 001c 013B     		subs	r3, r3, #1
 2264              	.LVL246:
 2265              	.L167:
ARM GAS  C:\Users\kroko\AppData\Local\Temp\ccWVPZuZ.s 			page 55


  64:Core/Src/ssd1306.c **** 		p--;
 2266              		.loc 1 64 9 is_stmt 1 view .LVU560
 2267 001e 002B     		cmp	r3, #0
 2268 0020 FCD1     		bne	.L168
  68:Core/Src/ssd1306.c **** 	SSD1306_WRITECOMMAND(0x20); //Set Memory Addressing Mode   
 2269              		.loc 1 68 2 view .LVU561
 2270 0022 AE22     		movs	r2, #174
 2271 0024 0021     		movs	r1, #0
 2272 0026 7820     		movs	r0, #120
 2273 0028 FFF7FEFF 		bl	ssd1306_I2C_Write
 2274              	.LVL247:
  69:Core/Src/ssd1306.c **** 	SSD1306_WRITECOMMAND(0x10); //00,Horizontal Addressing Mode;01,Vertical Addressing Mode;10,Page Ad
 2275              		.loc 1 69 2 view .LVU562
 2276 002c 2022     		movs	r2, #32
 2277 002e 0021     		movs	r1, #0
 2278 0030 7820     		movs	r0, #120
 2279 0032 FFF7FEFF 		bl	ssd1306_I2C_Write
 2280              	.LVL248:
  70:Core/Src/ssd1306.c **** 	SSD1306_WRITECOMMAND(0xB0); //Set Page Start Address for Page Addressing Mode,0-7
 2281              		.loc 1 70 2 view .LVU563
 2282 0036 1022     		movs	r2, #16
 2283 0038 0021     		movs	r1, #0
 2284 003a 7820     		movs	r0, #120
 2285 003c FFF7FEFF 		bl	ssd1306_I2C_Write
 2286              	.LVL249:
  71:Core/Src/ssd1306.c **** 	SSD1306_WRITECOMMAND(0xC8); //Set COM Output Scan Direction
 2287              		.loc 1 71 2 view .LVU564
 2288 0040 B022     		movs	r2, #176
 2289 0042 0021     		movs	r1, #0
 2290 0044 7820     		movs	r0, #120
 2291 0046 FFF7FEFF 		bl	ssd1306_I2C_Write
 2292              	.LVL250:
  72:Core/Src/ssd1306.c **** 	SSD1306_WRITECOMMAND(0x00); //---set low column address
 2293              		.loc 1 72 2 view .LVU565
 2294 004a C822     		movs	r2, #200
 2295 004c 0021     		movs	r1, #0
 2296 004e 7820     		movs	r0, #120
 2297 0050 FFF7FEFF 		bl	ssd1306_I2C_Write
 2298              	.LVL251:
  73:Core/Src/ssd1306.c **** 	SSD1306_WRITECOMMAND(0x10); //---set high column address
 2299              		.loc 1 73 2 view .LVU566
 2300 0054 0022     		movs	r2, #0
 2301 0056 1146     		mov	r1, r2
 2302 0058 7820     		movs	r0, #120
 2303 005a FFF7FEFF 		bl	ssd1306_I2C_Write
 2304              	.LVL252:
  74:Core/Src/ssd1306.c **** 	SSD1306_WRITECOMMAND(0x40); //--set start line address
 2305              		.loc 1 74 2 view .LVU567
 2306 005e 1022     		movs	r2, #16
 2307 0060 0021     		movs	r1, #0
 2308 0062 7820     		movs	r0, #120
 2309 0064 FFF7FEFF 		bl	ssd1306_I2C_Write
 2310              	.LVL253:
  75:Core/Src/ssd1306.c **** 	SSD1306_WRITECOMMAND(0x81); //--set contrast control register
 2311              		.loc 1 75 2 view .LVU568
 2312 0068 4022     		movs	r2, #64
 2313 006a 0021     		movs	r1, #0
ARM GAS  C:\Users\kroko\AppData\Local\Temp\ccWVPZuZ.s 			page 56


 2314 006c 7820     		movs	r0, #120
 2315 006e FFF7FEFF 		bl	ssd1306_I2C_Write
 2316              	.LVL254:
  76:Core/Src/ssd1306.c **** 	SSD1306_WRITECOMMAND(0xFF);
 2317              		.loc 1 76 2 view .LVU569
 2318 0072 8122     		movs	r2, #129
 2319 0074 0021     		movs	r1, #0
 2320 0076 7820     		movs	r0, #120
 2321 0078 FFF7FEFF 		bl	ssd1306_I2C_Write
 2322              	.LVL255:
  77:Core/Src/ssd1306.c **** 	SSD1306_WRITECOMMAND(0xA1); //--set segment re-map 0 to 127
 2323              		.loc 1 77 2 view .LVU570
 2324 007c FF22     		movs	r2, #255
 2325 007e 0021     		movs	r1, #0
 2326 0080 7820     		movs	r0, #120
 2327 0082 FFF7FEFF 		bl	ssd1306_I2C_Write
 2328              	.LVL256:
  78:Core/Src/ssd1306.c **** 	SSD1306_WRITECOMMAND(0xA6); //--set normal display
 2329              		.loc 1 78 2 view .LVU571
 2330 0086 A122     		movs	r2, #161
 2331 0088 0021     		movs	r1, #0
 2332 008a 7820     		movs	r0, #120
 2333 008c FFF7FEFF 		bl	ssd1306_I2C_Write
 2334              	.LVL257:
  79:Core/Src/ssd1306.c **** #if (SSD1306_HEIGHT == 128)
 2335              		.loc 1 79 2 view .LVU572
 2336 0090 A622     		movs	r2, #166
 2337 0092 0021     		movs	r1, #0
 2338 0094 7820     		movs	r0, #120
 2339 0096 FFF7FEFF 		bl	ssd1306_I2C_Write
 2340              	.LVL258:
  84:Core/Src/ssd1306.c **** #endif
 2341              		.loc 1 84 2 view .LVU573
 2342 009a A822     		movs	r2, #168
 2343 009c 0021     		movs	r1, #0
 2344 009e 7820     		movs	r0, #120
 2345 00a0 FFF7FEFF 		bl	ssd1306_I2C_Write
 2346              	.LVL259:
  90:Core/Src/ssd1306.c **** #elif (SSD1306_HEIGHT == 128)
 2347              		.loc 1 90 2 view .LVU574
 2348 00a4 3F22     		movs	r2, #63
 2349 00a6 0021     		movs	r1, #0
 2350 00a8 7820     		movs	r0, #120
 2351 00aa FFF7FEFF 		bl	ssd1306_I2C_Write
 2352              	.LVL260:
  94:Core/Src/ssd1306.c **** 	SSD1306_WRITECOMMAND(0xD3); //-set display offset
 2353              		.loc 1 94 2 view .LVU575
 2354 00ae A422     		movs	r2, #164
 2355 00b0 0021     		movs	r1, #0
 2356 00b2 7820     		movs	r0, #120
 2357 00b4 FFF7FEFF 		bl	ssd1306_I2C_Write
 2358              	.LVL261:
  95:Core/Src/ssd1306.c **** 	SSD1306_WRITECOMMAND(0x00); //-not offset
 2359              		.loc 1 95 2 view .LVU576
 2360 00b8 D322     		movs	r2, #211
 2361 00ba 0021     		movs	r1, #0
 2362 00bc 7820     		movs	r0, #120
ARM GAS  C:\Users\kroko\AppData\Local\Temp\ccWVPZuZ.s 			page 57


 2363 00be FFF7FEFF 		bl	ssd1306_I2C_Write
 2364              	.LVL262:
  96:Core/Src/ssd1306.c **** 	SSD1306_WRITECOMMAND(0xD5); //--set display clock divide ratio/oscillator frequency
 2365              		.loc 1 96 2 view .LVU577
 2366 00c2 0022     		movs	r2, #0
 2367 00c4 1146     		mov	r1, r2
 2368 00c6 7820     		movs	r0, #120
 2369 00c8 FFF7FEFF 		bl	ssd1306_I2C_Write
 2370              	.LVL263:
  97:Core/Src/ssd1306.c **** 	SSD1306_WRITECOMMAND(0xF0); //--set divide ratio
 2371              		.loc 1 97 2 view .LVU578
 2372 00cc D522     		movs	r2, #213
 2373 00ce 0021     		movs	r1, #0
 2374 00d0 7820     		movs	r0, #120
 2375 00d2 FFF7FEFF 		bl	ssd1306_I2C_Write
 2376              	.LVL264:
  98:Core/Src/ssd1306.c **** 	SSD1306_WRITECOMMAND(0xD9); //--set pre-charge period
 2377              		.loc 1 98 2 view .LVU579
 2378 00d6 F022     		movs	r2, #240
 2379 00d8 0021     		movs	r1, #0
 2380 00da 7820     		movs	r0, #120
 2381 00dc FFF7FEFF 		bl	ssd1306_I2C_Write
 2382              	.LVL265:
  99:Core/Src/ssd1306.c **** 	SSD1306_WRITECOMMAND(0x22); //
 2383              		.loc 1 99 2 view .LVU580
 2384 00e0 D922     		movs	r2, #217
 2385 00e2 0021     		movs	r1, #0
 2386 00e4 7820     		movs	r0, #120
 2387 00e6 FFF7FEFF 		bl	ssd1306_I2C_Write
 2388              	.LVL266:
 100:Core/Src/ssd1306.c **** 
 2389              		.loc 1 100 2 view .LVU581
 2390 00ea 2222     		movs	r2, #34
 2391 00ec 0021     		movs	r1, #0
 2392 00ee 7820     		movs	r0, #120
 2393 00f0 FFF7FEFF 		bl	ssd1306_I2C_Write
 2394              	.LVL267:
 102:Core/Src/ssd1306.c **** #if (SSD1306_HEIGHT == 32)
 2395              		.loc 1 102 2 view .LVU582
 2396 00f4 DA22     		movs	r2, #218
 2397 00f6 0021     		movs	r1, #0
 2398 00f8 7820     		movs	r0, #120
 2399 00fa FFF7FEFF 		bl	ssd1306_I2C_Write
 2400              	.LVL268:
 106:Core/Src/ssd1306.c **** #elif (SSD1306_HEIGHT == 128)
 2401              		.loc 1 106 2 view .LVU583
 2402 00fe 1222     		movs	r2, #18
 2403 0100 0021     		movs	r1, #0
 2404 0102 7820     		movs	r0, #120
 2405 0104 FFF7FEFF 		bl	ssd1306_I2C_Write
 2406              	.LVL269:
 111:Core/Src/ssd1306.c **** 	SSD1306_WRITECOMMAND(0x20); //0x20,0.77xVcc
 2407              		.loc 1 111 2 view .LVU584
 2408 0108 DB22     		movs	r2, #219
 2409 010a 0021     		movs	r1, #0
 2410 010c 7820     		movs	r0, #120
 2411 010e FFF7FEFF 		bl	ssd1306_I2C_Write
ARM GAS  C:\Users\kroko\AppData\Local\Temp\ccWVPZuZ.s 			page 58


 2412              	.LVL270:
 112:Core/Src/ssd1306.c **** 	SSD1306_WRITECOMMAND(0x8D); //--set DC-DC enable
 2413              		.loc 1 112 2 view .LVU585
 2414 0112 2022     		movs	r2, #32
 2415 0114 0021     		movs	r1, #0
 2416 0116 7820     		movs	r0, #120
 2417 0118 FFF7FEFF 		bl	ssd1306_I2C_Write
 2418              	.LVL271:
 113:Core/Src/ssd1306.c **** 	SSD1306_WRITECOMMAND(0x14); //
 2419              		.loc 1 113 2 view .LVU586
 2420 011c 8D22     		movs	r2, #141
 2421 011e 0021     		movs	r1, #0
 2422 0120 7820     		movs	r0, #120
 2423 0122 FFF7FEFF 		bl	ssd1306_I2C_Write
 2424              	.LVL272:
 114:Core/Src/ssd1306.c **** 	SSD1306_WRITECOMMAND(0xAF); //--turn on SSD1306 panel
 2425              		.loc 1 114 2 view .LVU587
 2426 0126 1422     		movs	r2, #20
 2427 0128 0021     		movs	r1, #0
 2428 012a 7820     		movs	r0, #120
 2429 012c FFF7FEFF 		bl	ssd1306_I2C_Write
 2430              	.LVL273:
 115:Core/Src/ssd1306.c **** 	
 2431              		.loc 1 115 2 view .LVU588
 2432 0130 AF22     		movs	r2, #175
 2433 0132 0021     		movs	r1, #0
 2434 0134 7820     		movs	r0, #120
 2435 0136 FFF7FEFF 		bl	ssd1306_I2C_Write
 2436              	.LVL274:
 118:Core/Src/ssd1306.c **** 
 2437              		.loc 1 118 2 view .LVU589
 2438 013a 2E22     		movs	r2, #46
 2439 013c 0021     		movs	r1, #0
 2440 013e 7820     		movs	r0, #120
 2441 0140 FFF7FEFF 		bl	ssd1306_I2C_Write
 2442              	.LVL275:
 121:Core/Src/ssd1306.c **** 	
 2443              		.loc 1 121 2 view .LVU590
 2444 0144 0020     		movs	r0, #0
 2445 0146 FFF7FEFF 		bl	SSD1306_Fill
 2446              	.LVL276:
 124:Core/Src/ssd1306.c **** 	
 2447              		.loc 1 124 2 view .LVU591
 2448 014a FFF7FEFF 		bl	SSD1306_UpdateScreen
 2449              	.LVL277:
 127:Core/Src/ssd1306.c **** 	SSD1306.CurrentY = 0;
 2450              		.loc 1 127 2 view .LVU592
 127:Core/Src/ssd1306.c **** 	SSD1306.CurrentY = 0;
 2451              		.loc 1 127 19 is_stmt 0 view .LVU593
 2452 014e 054B     		ldr	r3, .L171+4
 2453 0150 0022     		movs	r2, #0
 2454 0152 1A80     		strh	r2, [r3]	@ movhi
 128:Core/Src/ssd1306.c **** 	
 2455              		.loc 1 128 2 is_stmt 1 view .LVU594
 128:Core/Src/ssd1306.c **** 	
 2456              		.loc 1 128 19 is_stmt 0 view .LVU595
 2457 0154 5A80     		strh	r2, [r3, #2]	@ movhi
ARM GAS  C:\Users\kroko\AppData\Local\Temp\ccWVPZuZ.s 			page 59


 131:Core/Src/ssd1306.c **** 	
 2458              		.loc 1 131 2 is_stmt 1 view .LVU596
 131:Core/Src/ssd1306.c **** 	
 2459              		.loc 1 131 22 is_stmt 0 view .LVU597
 2460 0156 0120     		movs	r0, #1
 2461 0158 5871     		strb	r0, [r3, #5]
 134:Core/Src/ssd1306.c **** }
 2462              		.loc 1 134 2 is_stmt 1 view .LVU598
 2463              	.LVL278:
 2464              	.L166:
 135:Core/Src/ssd1306.c **** 
 2465              		.loc 1 135 1 is_stmt 0 view .LVU599
 2466 015a 08BD     		pop	{r3, pc}
 2467              	.L169:
  59:Core/Src/ssd1306.c **** 	}
 2468              		.loc 1 59 10 view .LVU600
 2469 015c 0020     		movs	r0, #0
 2470 015e FCE7     		b	.L166
 2471              	.L172:
 2472              		.align	2
 2473              	.L171:
 2474 0160 00000000 		.word	hi2c1
 2475 0164 00000000 		.word	SSD1306
 2476              		.cfi_endproc
 2477              	.LFE65:
 2479              		.section	.text.SSD1306_ScrollRight,"ax",%progbits
 2480              		.align	1
 2481              		.global	SSD1306_ScrollRight
 2482              		.syntax unified
 2483              		.thumb
 2484              		.thumb_func
 2486              	SSD1306_ScrollRight:
 2487              	.LVL279:
 2488              	.LFB80:
 511:Core/Src/ssd1306.c ****   SSD1306_WRITECOMMAND (SSD1306_RIGHT_HORIZONTAL_SCROLL);  // send 0x26
 2489              		.loc 1 511 1 is_stmt 1 view -0
 2490              		.cfi_startproc
 2491              		@ args = 0, pretend = 0, frame = 0
 2492              		@ frame_needed = 0, uses_anonymous_args = 0
 511:Core/Src/ssd1306.c ****   SSD1306_WRITECOMMAND (SSD1306_RIGHT_HORIZONTAL_SCROLL);  // send 0x26
 2493              		.loc 1 511 1 is_stmt 0 view .LVU602
 2494 0000 38B5     		push	{r3, r4, r5, lr}
 2495              		.cfi_def_cfa_offset 16
 2496              		.cfi_offset 3, -16
 2497              		.cfi_offset 4, -12
 2498              		.cfi_offset 5, -8
 2499              		.cfi_offset 14, -4
 2500 0002 0546     		mov	r5, r0
 2501 0004 0C46     		mov	r4, r1
 512:Core/Src/ssd1306.c ****   SSD1306_WRITECOMMAND (0x00);  // send dummy
 2502              		.loc 1 512 3 is_stmt 1 view .LVU603
 2503 0006 2622     		movs	r2, #38
 2504 0008 0021     		movs	r1, #0
 2505              	.LVL280:
 512:Core/Src/ssd1306.c ****   SSD1306_WRITECOMMAND (0x00);  // send dummy
 2506              		.loc 1 512 3 is_stmt 0 view .LVU604
 2507 000a 7820     		movs	r0, #120
ARM GAS  C:\Users\kroko\AppData\Local\Temp\ccWVPZuZ.s 			page 60


 2508              	.LVL281:
 512:Core/Src/ssd1306.c ****   SSD1306_WRITECOMMAND (0x00);  // send dummy
 2509              		.loc 1 512 3 view .LVU605
 2510 000c FFF7FEFF 		bl	ssd1306_I2C_Write
 2511              	.LVL282:
 513:Core/Src/ssd1306.c ****   SSD1306_WRITECOMMAND(start_row);  // start page address
 2512              		.loc 1 513 3 is_stmt 1 view .LVU606
 2513 0010 0022     		movs	r2, #0
 2514 0012 1146     		mov	r1, r2
 2515 0014 7820     		movs	r0, #120
 2516 0016 FFF7FEFF 		bl	ssd1306_I2C_Write
 2517              	.LVL283:
 514:Core/Src/ssd1306.c ****   SSD1306_WRITECOMMAND(0X00);  // time interval 5 frames
 2518              		.loc 1 514 3 view .LVU607
 2519 001a 2A46     		mov	r2, r5
 2520 001c 0021     		movs	r1, #0
 2521 001e 7820     		movs	r0, #120
 2522 0020 FFF7FEFF 		bl	ssd1306_I2C_Write
 2523              	.LVL284:
 515:Core/Src/ssd1306.c ****   SSD1306_WRITECOMMAND(end_row);  // end page address
 2524              		.loc 1 515 3 view .LVU608
 2525 0024 0022     		movs	r2, #0
 2526 0026 1146     		mov	r1, r2
 2527 0028 7820     		movs	r0, #120
 2528 002a FFF7FEFF 		bl	ssd1306_I2C_Write
 2529              	.LVL285:
 516:Core/Src/ssd1306.c ****   SSD1306_WRITECOMMAND(0X00);
 2530              		.loc 1 516 3 view .LVU609
 2531 002e 2246     		mov	r2, r4
 2532 0030 0021     		movs	r1, #0
 2533 0032 7820     		movs	r0, #120
 2534 0034 FFF7FEFF 		bl	ssd1306_I2C_Write
 2535              	.LVL286:
 517:Core/Src/ssd1306.c ****   SSD1306_WRITECOMMAND(0XFF);
 2536              		.loc 1 517 3 view .LVU610
 2537 0038 0022     		movs	r2, #0
 2538 003a 1146     		mov	r1, r2
 2539 003c 7820     		movs	r0, #120
 2540 003e FFF7FEFF 		bl	ssd1306_I2C_Write
 2541              	.LVL287:
 518:Core/Src/ssd1306.c ****   SSD1306_WRITECOMMAND (SSD1306_ACTIVATE_SCROLL); // start scroll
 2542              		.loc 1 518 3 view .LVU611
 2543 0042 FF22     		movs	r2, #255
 2544 0044 0021     		movs	r1, #0
 2545 0046 7820     		movs	r0, #120
 2546 0048 FFF7FEFF 		bl	ssd1306_I2C_Write
 2547              	.LVL288:
 519:Core/Src/ssd1306.c **** }
 2548              		.loc 1 519 3 view .LVU612
 2549 004c 2F22     		movs	r2, #47
 2550 004e 0021     		movs	r1, #0
 2551 0050 7820     		movs	r0, #120
 2552 0052 FFF7FEFF 		bl	ssd1306_I2C_Write
 2553              	.LVL289:
 520:Core/Src/ssd1306.c **** 
 2554              		.loc 1 520 1 is_stmt 0 view .LVU613
 2555 0056 38BD     		pop	{r3, r4, r5, pc}
ARM GAS  C:\Users\kroko\AppData\Local\Temp\ccWVPZuZ.s 			page 61


 520:Core/Src/ssd1306.c **** 
 2556              		.loc 1 520 1 view .LVU614
 2557              		.cfi_endproc
 2558              	.LFE80:
 2560              		.section	.text.SSD1306_ScrollLeft,"ax",%progbits
 2561              		.align	1
 2562              		.global	SSD1306_ScrollLeft
 2563              		.syntax unified
 2564              		.thumb
 2565              		.thumb_func
 2567              	SSD1306_ScrollLeft:
 2568              	.LVL290:
 2569              	.LFB81:
 524:Core/Src/ssd1306.c ****   SSD1306_WRITECOMMAND (SSD1306_LEFT_HORIZONTAL_SCROLL);  // send 0x26
 2570              		.loc 1 524 1 is_stmt 1 view -0
 2571              		.cfi_startproc
 2572              		@ args = 0, pretend = 0, frame = 0
 2573              		@ frame_needed = 0, uses_anonymous_args = 0
 524:Core/Src/ssd1306.c ****   SSD1306_WRITECOMMAND (SSD1306_LEFT_HORIZONTAL_SCROLL);  // send 0x26
 2574              		.loc 1 524 1 is_stmt 0 view .LVU616
 2575 0000 38B5     		push	{r3, r4, r5, lr}
 2576              		.cfi_def_cfa_offset 16
 2577              		.cfi_offset 3, -16
 2578              		.cfi_offset 4, -12
 2579              		.cfi_offset 5, -8
 2580              		.cfi_offset 14, -4
 2581 0002 0546     		mov	r5, r0
 2582 0004 0C46     		mov	r4, r1
 525:Core/Src/ssd1306.c ****   SSD1306_WRITECOMMAND (0x00);  // send dummy
 2583              		.loc 1 525 3 is_stmt 1 view .LVU617
 2584 0006 2722     		movs	r2, #39
 2585 0008 0021     		movs	r1, #0
 2586              	.LVL291:
 525:Core/Src/ssd1306.c ****   SSD1306_WRITECOMMAND (0x00);  // send dummy
 2587              		.loc 1 525 3 is_stmt 0 view .LVU618
 2588 000a 7820     		movs	r0, #120
 2589              	.LVL292:
 525:Core/Src/ssd1306.c ****   SSD1306_WRITECOMMAND (0x00);  // send dummy
 2590              		.loc 1 525 3 view .LVU619
 2591 000c FFF7FEFF 		bl	ssd1306_I2C_Write
 2592              	.LVL293:
 526:Core/Src/ssd1306.c ****   SSD1306_WRITECOMMAND(start_row);  // start page address
 2593              		.loc 1 526 3 is_stmt 1 view .LVU620
 2594 0010 0022     		movs	r2, #0
 2595 0012 1146     		mov	r1, r2
 2596 0014 7820     		movs	r0, #120
 2597 0016 FFF7FEFF 		bl	ssd1306_I2C_Write
 2598              	.LVL294:
 527:Core/Src/ssd1306.c ****   SSD1306_WRITECOMMAND(0X00);  // time interval 5 frames
 2599              		.loc 1 527 3 view .LVU621
 2600 001a 2A46     		mov	r2, r5
 2601 001c 0021     		movs	r1, #0
 2602 001e 7820     		movs	r0, #120
 2603 0020 FFF7FEFF 		bl	ssd1306_I2C_Write
 2604              	.LVL295:
 528:Core/Src/ssd1306.c ****   SSD1306_WRITECOMMAND(end_row);  // end page address
 2605              		.loc 1 528 3 view .LVU622
ARM GAS  C:\Users\kroko\AppData\Local\Temp\ccWVPZuZ.s 			page 62


 2606 0024 0022     		movs	r2, #0
 2607 0026 1146     		mov	r1, r2
 2608 0028 7820     		movs	r0, #120
 2609 002a FFF7FEFF 		bl	ssd1306_I2C_Write
 2610              	.LVL296:
 529:Core/Src/ssd1306.c ****   SSD1306_WRITECOMMAND(0X00);
 2611              		.loc 1 529 3 view .LVU623
 2612 002e 2246     		mov	r2, r4
 2613 0030 0021     		movs	r1, #0
 2614 0032 7820     		movs	r0, #120
 2615 0034 FFF7FEFF 		bl	ssd1306_I2C_Write
 2616              	.LVL297:
 530:Core/Src/ssd1306.c ****   SSD1306_WRITECOMMAND(0XFF);
 2617              		.loc 1 530 3 view .LVU624
 2618 0038 0022     		movs	r2, #0
 2619 003a 1146     		mov	r1, r2
 2620 003c 7820     		movs	r0, #120
 2621 003e FFF7FEFF 		bl	ssd1306_I2C_Write
 2622              	.LVL298:
 531:Core/Src/ssd1306.c ****   SSD1306_WRITECOMMAND (SSD1306_ACTIVATE_SCROLL); // start scroll
 2623              		.loc 1 531 3 view .LVU625
 2624 0042 FF22     		movs	r2, #255
 2625 0044 0021     		movs	r1, #0
 2626 0046 7820     		movs	r0, #120
 2627 0048 FFF7FEFF 		bl	ssd1306_I2C_Write
 2628              	.LVL299:
 532:Core/Src/ssd1306.c **** }
 2629              		.loc 1 532 3 view .LVU626
 2630 004c 2F22     		movs	r2, #47
 2631 004e 0021     		movs	r1, #0
 2632 0050 7820     		movs	r0, #120
 2633 0052 FFF7FEFF 		bl	ssd1306_I2C_Write
 2634              	.LVL300:
 533:Core/Src/ssd1306.c **** 
 2635              		.loc 1 533 1 is_stmt 0 view .LVU627
 2636 0056 38BD     		pop	{r3, r4, r5, pc}
 533:Core/Src/ssd1306.c **** 
 2637              		.loc 1 533 1 view .LVU628
 2638              		.cfi_endproc
 2639              	.LFE81:
 2641              		.section	.text.SSD1306_Scrolldiagright,"ax",%progbits
 2642              		.align	1
 2643              		.global	SSD1306_Scrolldiagright
 2644              		.syntax unified
 2645              		.thumb
 2646              		.thumb_func
 2648              	SSD1306_Scrolldiagright:
 2649              	.LVL301:
 2650              	.LFB82:
 537:Core/Src/ssd1306.c ****   SSD1306_WRITECOMMAND(SSD1306_SET_VERTICAL_SCROLL_AREA);  // sect the area
 2651              		.loc 1 537 1 is_stmt 1 view -0
 2652              		.cfi_startproc
 2653              		@ args = 0, pretend = 0, frame = 0
 2654              		@ frame_needed = 0, uses_anonymous_args = 0
 537:Core/Src/ssd1306.c ****   SSD1306_WRITECOMMAND(SSD1306_SET_VERTICAL_SCROLL_AREA);  // sect the area
 2655              		.loc 1 537 1 is_stmt 0 view .LVU630
 2656 0000 38B5     		push	{r3, r4, r5, lr}
ARM GAS  C:\Users\kroko\AppData\Local\Temp\ccWVPZuZ.s 			page 63


 2657              		.cfi_def_cfa_offset 16
 2658              		.cfi_offset 3, -16
 2659              		.cfi_offset 4, -12
 2660              		.cfi_offset 5, -8
 2661              		.cfi_offset 14, -4
 2662 0002 0546     		mov	r5, r0
 2663 0004 0C46     		mov	r4, r1
 538:Core/Src/ssd1306.c ****   SSD1306_WRITECOMMAND (0x00);   // write dummy
 2664              		.loc 1 538 3 is_stmt 1 view .LVU631
 2665 0006 A322     		movs	r2, #163
 2666 0008 0021     		movs	r1, #0
 2667              	.LVL302:
 538:Core/Src/ssd1306.c ****   SSD1306_WRITECOMMAND (0x00);   // write dummy
 2668              		.loc 1 538 3 is_stmt 0 view .LVU632
 2669 000a 7820     		movs	r0, #120
 2670              	.LVL303:
 538:Core/Src/ssd1306.c ****   SSD1306_WRITECOMMAND (0x00);   // write dummy
 2671              		.loc 1 538 3 view .LVU633
 2672 000c FFF7FEFF 		bl	ssd1306_I2C_Write
 2673              	.LVL304:
 539:Core/Src/ssd1306.c ****   SSD1306_WRITECOMMAND(SSD1306_HEIGHT);
 2674              		.loc 1 539 3 is_stmt 1 view .LVU634
 2675 0010 0022     		movs	r2, #0
 2676 0012 1146     		mov	r1, r2
 2677 0014 7820     		movs	r0, #120
 2678 0016 FFF7FEFF 		bl	ssd1306_I2C_Write
 2679              	.LVL305:
 540:Core/Src/ssd1306.c **** 
 2680              		.loc 1 540 3 view .LVU635
 2681 001a 4022     		movs	r2, #64
 2682 001c 0021     		movs	r1, #0
 2683 001e 7820     		movs	r0, #120
 2684 0020 FFF7FEFF 		bl	ssd1306_I2C_Write
 2685              	.LVL306:
 542:Core/Src/ssd1306.c ****   SSD1306_WRITECOMMAND (0x00);
 2686              		.loc 1 542 3 view .LVU636
 2687 0024 2922     		movs	r2, #41
 2688 0026 0021     		movs	r1, #0
 2689 0028 7820     		movs	r0, #120
 2690 002a FFF7FEFF 		bl	ssd1306_I2C_Write
 2691              	.LVL307:
 543:Core/Src/ssd1306.c ****   SSD1306_WRITECOMMAND(start_row);
 2692              		.loc 1 543 3 view .LVU637
 2693 002e 0022     		movs	r2, #0
 2694 0030 1146     		mov	r1, r2
 2695 0032 7820     		movs	r0, #120
 2696 0034 FFF7FEFF 		bl	ssd1306_I2C_Write
 2697              	.LVL308:
 544:Core/Src/ssd1306.c ****   SSD1306_WRITECOMMAND(0X00);
 2698              		.loc 1 544 3 view .LVU638
 2699 0038 2A46     		mov	r2, r5
 2700 003a 0021     		movs	r1, #0
 2701 003c 7820     		movs	r0, #120
 2702 003e FFF7FEFF 		bl	ssd1306_I2C_Write
 2703              	.LVL309:
 545:Core/Src/ssd1306.c ****   SSD1306_WRITECOMMAND(end_row);
 2704              		.loc 1 545 3 view .LVU639
ARM GAS  C:\Users\kroko\AppData\Local\Temp\ccWVPZuZ.s 			page 64


 2705 0042 0022     		movs	r2, #0
 2706 0044 1146     		mov	r1, r2
 2707 0046 7820     		movs	r0, #120
 2708 0048 FFF7FEFF 		bl	ssd1306_I2C_Write
 2709              	.LVL310:
 546:Core/Src/ssd1306.c ****   SSD1306_WRITECOMMAND (0x01);
 2710              		.loc 1 546 3 view .LVU640
 2711 004c 2246     		mov	r2, r4
 2712 004e 0021     		movs	r1, #0
 2713 0050 7820     		movs	r0, #120
 2714 0052 FFF7FEFF 		bl	ssd1306_I2C_Write
 2715              	.LVL311:
 547:Core/Src/ssd1306.c ****   SSD1306_WRITECOMMAND (SSD1306_ACTIVATE_SCROLL);
 2716              		.loc 1 547 3 view .LVU641
 2717 0056 0122     		movs	r2, #1
 2718 0058 0021     		movs	r1, #0
 2719 005a 7820     		movs	r0, #120
 2720 005c FFF7FEFF 		bl	ssd1306_I2C_Write
 2721              	.LVL312:
 548:Core/Src/ssd1306.c **** }
 2722              		.loc 1 548 3 view .LVU642
 2723 0060 2F22     		movs	r2, #47
 2724 0062 0021     		movs	r1, #0
 2725 0064 7820     		movs	r0, #120
 2726 0066 FFF7FEFF 		bl	ssd1306_I2C_Write
 2727              	.LVL313:
 549:Core/Src/ssd1306.c **** 
 2728              		.loc 1 549 1 is_stmt 0 view .LVU643
 2729 006a 38BD     		pop	{r3, r4, r5, pc}
 549:Core/Src/ssd1306.c **** 
 2730              		.loc 1 549 1 view .LVU644
 2731              		.cfi_endproc
 2732              	.LFE82:
 2734              		.section	.text.SSD1306_Scrolldiagleft,"ax",%progbits
 2735              		.align	1
 2736              		.global	SSD1306_Scrolldiagleft
 2737              		.syntax unified
 2738              		.thumb
 2739              		.thumb_func
 2741              	SSD1306_Scrolldiagleft:
 2742              	.LVL314:
 2743              	.LFB83:
 553:Core/Src/ssd1306.c ****   SSD1306_WRITECOMMAND(SSD1306_SET_VERTICAL_SCROLL_AREA);  // sect the area
 2744              		.loc 1 553 1 is_stmt 1 view -0
 2745              		.cfi_startproc
 2746              		@ args = 0, pretend = 0, frame = 0
 2747              		@ frame_needed = 0, uses_anonymous_args = 0
 553:Core/Src/ssd1306.c ****   SSD1306_WRITECOMMAND(SSD1306_SET_VERTICAL_SCROLL_AREA);  // sect the area
 2748              		.loc 1 553 1 is_stmt 0 view .LVU646
 2749 0000 38B5     		push	{r3, r4, r5, lr}
 2750              		.cfi_def_cfa_offset 16
 2751              		.cfi_offset 3, -16
 2752              		.cfi_offset 4, -12
 2753              		.cfi_offset 5, -8
 2754              		.cfi_offset 14, -4
 2755 0002 0546     		mov	r5, r0
 2756 0004 0C46     		mov	r4, r1
ARM GAS  C:\Users\kroko\AppData\Local\Temp\ccWVPZuZ.s 			page 65


 554:Core/Src/ssd1306.c ****   SSD1306_WRITECOMMAND (0x00);   // write dummy
 2757              		.loc 1 554 3 is_stmt 1 view .LVU647
 2758 0006 A322     		movs	r2, #163
 2759 0008 0021     		movs	r1, #0
 2760              	.LVL315:
 554:Core/Src/ssd1306.c ****   SSD1306_WRITECOMMAND (0x00);   // write dummy
 2761              		.loc 1 554 3 is_stmt 0 view .LVU648
 2762 000a 7820     		movs	r0, #120
 2763              	.LVL316:
 554:Core/Src/ssd1306.c ****   SSD1306_WRITECOMMAND (0x00);   // write dummy
 2764              		.loc 1 554 3 view .LVU649
 2765 000c FFF7FEFF 		bl	ssd1306_I2C_Write
 2766              	.LVL317:
 555:Core/Src/ssd1306.c ****   SSD1306_WRITECOMMAND(SSD1306_HEIGHT);
 2767              		.loc 1 555 3 is_stmt 1 view .LVU650
 2768 0010 0022     		movs	r2, #0
 2769 0012 1146     		mov	r1, r2
 2770 0014 7820     		movs	r0, #120
 2771 0016 FFF7FEFF 		bl	ssd1306_I2C_Write
 2772              	.LVL318:
 556:Core/Src/ssd1306.c **** 
 2773              		.loc 1 556 3 view .LVU651
 2774 001a 4022     		movs	r2, #64
 2775 001c 0021     		movs	r1, #0
 2776 001e 7820     		movs	r0, #120
 2777 0020 FFF7FEFF 		bl	ssd1306_I2C_Write
 2778              	.LVL319:
 558:Core/Src/ssd1306.c ****   SSD1306_WRITECOMMAND (0x00);
 2779              		.loc 1 558 3 view .LVU652
 2780 0024 2A22     		movs	r2, #42
 2781 0026 0021     		movs	r1, #0
 2782 0028 7820     		movs	r0, #120
 2783 002a FFF7FEFF 		bl	ssd1306_I2C_Write
 2784              	.LVL320:
 559:Core/Src/ssd1306.c ****   SSD1306_WRITECOMMAND(start_row);
 2785              		.loc 1 559 3 view .LVU653
 2786 002e 0022     		movs	r2, #0
 2787 0030 1146     		mov	r1, r2
 2788 0032 7820     		movs	r0, #120
 2789 0034 FFF7FEFF 		bl	ssd1306_I2C_Write
 2790              	.LVL321:
 560:Core/Src/ssd1306.c ****   SSD1306_WRITECOMMAND(0X00);
 2791              		.loc 1 560 3 view .LVU654
 2792 0038 2A46     		mov	r2, r5
 2793 003a 0021     		movs	r1, #0
 2794 003c 7820     		movs	r0, #120
 2795 003e FFF7FEFF 		bl	ssd1306_I2C_Write
 2796              	.LVL322:
 561:Core/Src/ssd1306.c ****   SSD1306_WRITECOMMAND(end_row);
 2797              		.loc 1 561 3 view .LVU655
 2798 0042 0022     		movs	r2, #0
 2799 0044 1146     		mov	r1, r2
 2800 0046 7820     		movs	r0, #120
 2801 0048 FFF7FEFF 		bl	ssd1306_I2C_Write
 2802              	.LVL323:
 562:Core/Src/ssd1306.c ****   SSD1306_WRITECOMMAND (0x01);
 2803              		.loc 1 562 3 view .LVU656
ARM GAS  C:\Users\kroko\AppData\Local\Temp\ccWVPZuZ.s 			page 66


 2804 004c 2246     		mov	r2, r4
 2805 004e 0021     		movs	r1, #0
 2806 0050 7820     		movs	r0, #120
 2807 0052 FFF7FEFF 		bl	ssd1306_I2C_Write
 2808              	.LVL324:
 563:Core/Src/ssd1306.c ****   SSD1306_WRITECOMMAND (SSD1306_ACTIVATE_SCROLL);
 2809              		.loc 1 563 3 view .LVU657
 2810 0056 0122     		movs	r2, #1
 2811 0058 0021     		movs	r1, #0
 2812 005a 7820     		movs	r0, #120
 2813 005c FFF7FEFF 		bl	ssd1306_I2C_Write
 2814              	.LVL325:
 564:Core/Src/ssd1306.c **** }
 2815              		.loc 1 564 3 view .LVU658
 2816 0060 2F22     		movs	r2, #47
 2817 0062 0021     		movs	r1, #0
 2818 0064 7820     		movs	r0, #120
 2819 0066 FFF7FEFF 		bl	ssd1306_I2C_Write
 2820              	.LVL326:
 565:Core/Src/ssd1306.c **** 
 2821              		.loc 1 565 1 is_stmt 0 view .LVU659
 2822 006a 38BD     		pop	{r3, r4, r5, pc}
 565:Core/Src/ssd1306.c **** 
 2823              		.loc 1 565 1 view .LVU660
 2824              		.cfi_endproc
 2825              	.LFE83:
 2827              		.section	.text.SSD1306_Stopscroll,"ax",%progbits
 2828              		.align	1
 2829              		.global	SSD1306_Stopscroll
 2830              		.syntax unified
 2831              		.thumb
 2832              		.thumb_func
 2834              	SSD1306_Stopscroll:
 2835              	.LFB84:
 569:Core/Src/ssd1306.c **** 	SSD1306_WRITECOMMAND(SSD1306_DEACTIVATE_SCROLL);
 2836              		.loc 1 569 1 is_stmt 1 view -0
 2837              		.cfi_startproc
 2838              		@ args = 0, pretend = 0, frame = 0
 2839              		@ frame_needed = 0, uses_anonymous_args = 0
 2840 0000 08B5     		push	{r3, lr}
 2841              		.cfi_def_cfa_offset 8
 2842              		.cfi_offset 3, -8
 2843              		.cfi_offset 14, -4
 570:Core/Src/ssd1306.c **** }
 2844              		.loc 1 570 2 view .LVU662
 2845 0002 2E22     		movs	r2, #46
 2846 0004 0021     		movs	r1, #0
 2847 0006 7820     		movs	r0, #120
 2848 0008 FFF7FEFF 		bl	ssd1306_I2C_Write
 2849              	.LVL327:
 571:Core/Src/ssd1306.c **** 
 2850              		.loc 1 571 1 is_stmt 0 view .LVU663
 2851 000c 08BD     		pop	{r3, pc}
 2852              		.cfi_endproc
 2853              	.LFE84:
 2855              		.section	.text.SSD1306_InvertDisplay,"ax",%progbits
 2856              		.align	1
ARM GAS  C:\Users\kroko\AppData\Local\Temp\ccWVPZuZ.s 			page 67


 2857              		.global	SSD1306_InvertDisplay
 2858              		.syntax unified
 2859              		.thumb
 2860              		.thumb_func
 2862              	SSD1306_InvertDisplay:
 2863              	.LVL328:
 2864              	.LFB85:
 576:Core/Src/ssd1306.c ****   if (i) SSD1306_WRITECOMMAND (SSD1306_INVERTDISPLAY);
 2865              		.loc 1 576 1 is_stmt 1 view -0
 2866              		.cfi_startproc
 2867              		@ args = 0, pretend = 0, frame = 0
 2868              		@ frame_needed = 0, uses_anonymous_args = 0
 576:Core/Src/ssd1306.c ****   if (i) SSD1306_WRITECOMMAND (SSD1306_INVERTDISPLAY);
 2869              		.loc 1 576 1 is_stmt 0 view .LVU665
 2870 0000 08B5     		push	{r3, lr}
 2871              		.cfi_def_cfa_offset 8
 2872              		.cfi_offset 3, -8
 2873              		.cfi_offset 14, -4
 577:Core/Src/ssd1306.c **** 
 2874              		.loc 1 577 3 is_stmt 1 view .LVU666
 577:Core/Src/ssd1306.c **** 
 2875              		.loc 1 577 6 is_stmt 0 view .LVU667
 2876 0002 28B1     		cbz	r0, .L184
 577:Core/Src/ssd1306.c **** 
 2877              		.loc 1 577 10 is_stmt 1 discriminator 1 view .LVU668
 2878 0004 A722     		movs	r2, #167
 2879 0006 0021     		movs	r1, #0
 2880 0008 7820     		movs	r0, #120
 2881              	.LVL329:
 577:Core/Src/ssd1306.c **** 
 2882              		.loc 1 577 10 is_stmt 0 discriminator 1 view .LVU669
 2883 000a FFF7FEFF 		bl	ssd1306_I2C_Write
 2884              	.LVL330:
 2885              	.L183:
 581:Core/Src/ssd1306.c **** 
 2886              		.loc 1 581 1 view .LVU670
 2887 000e 08BD     		pop	{r3, pc}
 2888              	.LVL331:
 2889              	.L184:
 579:Core/Src/ssd1306.c **** 
 2890              		.loc 1 579 8 is_stmt 1 view .LVU671
 2891 0010 A622     		movs	r2, #166
 2892 0012 0021     		movs	r1, #0
 2893 0014 7820     		movs	r0, #120
 2894              	.LVL332:
 579:Core/Src/ssd1306.c **** 
 2895              		.loc 1 579 8 is_stmt 0 view .LVU672
 2896 0016 FFF7FEFF 		bl	ssd1306_I2C_Write
 2897              	.LVL333:
 581:Core/Src/ssd1306.c **** 
 2898              		.loc 1 581 1 view .LVU673
 2899 001a F8E7     		b	.L183
 2900              		.cfi_endproc
 2901              	.LFE85:
 2903              		.section	.text.SSD1306_ON,"ax",%progbits
 2904              		.align	1
 2905              		.global	SSD1306_ON
ARM GAS  C:\Users\kroko\AppData\Local\Temp\ccWVPZuZ.s 			page 68


 2906              		.syntax unified
 2907              		.thumb
 2908              		.thumb_func
 2910              	SSD1306_ON:
 2911              	.LFB88:
 612:Core/Src/ssd1306.c **** 	SSD1306_WRITECOMMAND(0x8D);  
 2912              		.loc 1 612 23 is_stmt 1 view -0
 2913              		.cfi_startproc
 2914              		@ args = 0, pretend = 0, frame = 0
 2915              		@ frame_needed = 0, uses_anonymous_args = 0
 2916 0000 08B5     		push	{r3, lr}
 2917              		.cfi_def_cfa_offset 8
 2918              		.cfi_offset 3, -8
 2919              		.cfi_offset 14, -4
 613:Core/Src/ssd1306.c **** 	SSD1306_WRITECOMMAND(0x14);  
 2920              		.loc 1 613 2 view .LVU675
 2921 0002 8D22     		movs	r2, #141
 2922 0004 0021     		movs	r1, #0
 2923 0006 7820     		movs	r0, #120
 2924 0008 FFF7FEFF 		bl	ssd1306_I2C_Write
 2925              	.LVL334:
 614:Core/Src/ssd1306.c **** 	SSD1306_WRITECOMMAND(0xAF);  
 2926              		.loc 1 614 2 view .LVU676
 2927 000c 1422     		movs	r2, #20
 2928 000e 0021     		movs	r1, #0
 2929 0010 7820     		movs	r0, #120
 2930 0012 FFF7FEFF 		bl	ssd1306_I2C_Write
 2931              	.LVL335:
 615:Core/Src/ssd1306.c **** }
 2932              		.loc 1 615 2 view .LVU677
 2933 0016 AF22     		movs	r2, #175
 2934 0018 0021     		movs	r1, #0
 2935 001a 7820     		movs	r0, #120
 2936 001c FFF7FEFF 		bl	ssd1306_I2C_Write
 2937              	.LVL336:
 616:Core/Src/ssd1306.c **** void SSD1306_OFF(void) {
 2938              		.loc 1 616 1 is_stmt 0 view .LVU678
 2939 0020 08BD     		pop	{r3, pc}
 2940              		.cfi_endproc
 2941              	.LFE88:
 2943              		.section	.text.SSD1306_OFF,"ax",%progbits
 2944              		.align	1
 2945              		.global	SSD1306_OFF
 2946              		.syntax unified
 2947              		.thumb
 2948              		.thumb_func
 2950              	SSD1306_OFF:
 2951              	.LFB89:
 617:Core/Src/ssd1306.c **** 	SSD1306_WRITECOMMAND(0x8D);  
 2952              		.loc 1 617 24 is_stmt 1 view -0
 2953              		.cfi_startproc
 2954              		@ args = 0, pretend = 0, frame = 0
 2955              		@ frame_needed = 0, uses_anonymous_args = 0
 2956 0000 08B5     		push	{r3, lr}
 2957              		.cfi_def_cfa_offset 8
 2958              		.cfi_offset 3, -8
 2959              		.cfi_offset 14, -4
ARM GAS  C:\Users\kroko\AppData\Local\Temp\ccWVPZuZ.s 			page 69


 618:Core/Src/ssd1306.c **** 	SSD1306_WRITECOMMAND(0x10);
 2960              		.loc 1 618 2 view .LVU680
 2961 0002 8D22     		movs	r2, #141
 2962 0004 0021     		movs	r1, #0
 2963 0006 7820     		movs	r0, #120
 2964 0008 FFF7FEFF 		bl	ssd1306_I2C_Write
 2965              	.LVL337:
 619:Core/Src/ssd1306.c **** 	SSD1306_WRITECOMMAND(0xAE);  
 2966              		.loc 1 619 2 view .LVU681
 2967 000c 1022     		movs	r2, #16
 2968 000e 0021     		movs	r1, #0
 2969 0010 7820     		movs	r0, #120
 2970 0012 FFF7FEFF 		bl	ssd1306_I2C_Write
 2971              	.LVL338:
 620:Core/Src/ssd1306.c **** }
 2972              		.loc 1 620 2 view .LVU682
 2973 0016 AE22     		movs	r2, #174
 2974 0018 0021     		movs	r1, #0
 2975 001a 7820     		movs	r0, #120
 2976 001c FFF7FEFF 		bl	ssd1306_I2C_Write
 2977              	.LVL339:
 621:Core/Src/ssd1306.c **** 
 2978              		.loc 1 621 1 is_stmt 0 view .LVU683
 2979 0020 08BD     		pop	{r3, pc}
 2980              		.cfi_endproc
 2981              	.LFE89:
 2983              		.section	.bss.SSD1306,"aw",%nobits
 2984              		.align	2
 2987              	SSD1306:
 2988 0000 00000000 		.space	6
 2988      0000
 2989              		.section	.bss.SSD1306_Buffer,"aw",%nobits
 2990              		.align	2
 2993              	SSD1306_Buffer:
 2994 0000 00000000 		.space	1024
 2994      00000000 
 2994      00000000 
 2994      00000000 
 2994      00000000 
 2995              		.text
 2996              	.Letext0:
 2997              		.file 2 "C:/Users/kroko/AppData/Roaming/Code/User/globalStorage/bmd.stm32-for-vscode/@xpack-dev-to
 2998              		.file 3 "C:/Users/kroko/AppData/Roaming/Code/User/globalStorage/bmd.stm32-for-vscode/@xpack-dev-to
 2999              		.file 4 "Drivers/CMSIS/Device/ST/STM32F1xx/Include/stm32f103xb.h"
 3000              		.file 5 "C:/Users/kroko/AppData/Roaming/Code/User/globalStorage/bmd.stm32-for-vscode/@xpack-dev-to
 3001              		.file 6 "Drivers/STM32F1xx_HAL_Driver/Inc/stm32f1xx_hal_def.h"
 3002              		.file 7 "Drivers/STM32F1xx_HAL_Driver/Inc/stm32f1xx_hal_dma.h"
 3003              		.file 8 "Drivers/STM32F1xx_HAL_Driver/Inc/stm32f1xx_hal_i2c.h"
 3004              		.file 9 "Core/Inc/fonts.h"
 3005              		.file 10 "Core/Inc/ssd1306.h"
 3006              		.file 11 "C:/Users/kroko/AppData/Roaming/Code/User/globalStorage/bmd.stm32-for-vscode/@xpack-dev-t
ARM GAS  C:\Users\kroko\AppData\Local\Temp\ccWVPZuZ.s 			page 70

